(dp1
S''
I0
sV\u8000
I1
sV\u6d89
I2
sV\u8c08
I3
sV\u4f0a
I4
sV\u4e9f
I5
sV\u6d1e
I6
sV\u54a3
I7
sV\u7322
I8
sV\u7f2a
I9
sV\u6cb3
I10
sV\u4e34
I11
sV\u72b7
I12
sV\u5438
I13
sV\u5a3c
I14
sV\u7ebf
I15
sV\u53cd
I16
sV\u724c
I17
sV\u96cf
I18
sV\u59d1
I19
sV\u5362
I20
sV\u77e5
I21
sV\u9664
I22
sV\u5f6a
I23
sV\u95f9
I24
sV\u5eff
I25
sV\u8986
I26
sV\u8f8a
I27
sV\u5e94
I28
sV\u8e1f
I29
sV\u5121
I30
sV\u5d29
I31
sV\u7ca8
I32
sV\u82ac
I33
sV\u51b6
I34
sV\u9abc
I35
sV\u8d49
I36
sV\u6e5f
I37
sV\u56e4
I38
sV\u5ce8
I39
sV\u62ec
I40
sV\u68f0
I41
sV\u6ef4
I42
sV\u987b
I43
sV\u5b7d
I44
sV\u9e7f
I45
sV\u6c89
I46
sV\u4e0a
I47
sV\u540e
I48
sV\u7891
I49
sV\u9910
I50
sV\u6016
I51
sV\u8499
I52
sV\u90a1
I53
sVED\u000a
p2
I54
sV\u67af
I55
sV\u6db3
I56
sV\u4f34
I57
sV\u73b7
I58
sV\u9036
I59
sV\u79bb
I60
sV\u7fbf
I61
sV\u52cd
I62
sV\u58d1
I63
sV\u7950
I64
sV\u7f54
I65
sV\u76e5
I66
sV\u88f1
I67
sV\u53f7
I68
sV\u7076
I69
sV\u59fb
I70
sV\u5fff
I71
sV\u8282
I72
sV\u538c
I73
sV\u948e
I74
sV\u8317
I75
sV\u891b
I76
sV\u5021
I77
sV\u71a0
I78
sV\u9523
I79
sV\u7a3d
I80
sV\u62c2
I81
sV\u8c49
I82
sV\u514b
I83
sV\u574f
I84
sV\u9e55
I85
sV\u80d6
I86
sV\u6f5f
I87
sV\u51e0
I88
sV\u5de8
I89
sV\u8d73
I90
sV\u9f7f
I91
sV\u8200
I92
sV\u8404
I93
sV\u6316
I94
sV\u56a3
I95
sV\u7b26
I96
sV\u62ab
I97
sV\u70b7
I98
sV\u953a
I99
sV\u7cbf
I100
sV\u9f3e
I101
sV\u6240
I102
sV\u6444
I103
sV\u704c
I104
sV\u67d9
I105
sV\u4f5e
I106
sV\u5162
I107
sV\u5b66
I108
sV\u7fe9
I109
sV\u81ed
I110
sV\u8bf1
I111
sV\u8df5
I112
sV\u6807
I113
sV\u4e88
I114
sV\u8d8a
I115
sV\u740f
I116
sV\u9992
I117
sV\u5c94
I118
sV\u8017
I119
sV\u8c1f
I120
sV\u5321
I121
sV\u5f29
I122
sV\u7ea8
I123
sV\u6d35
I124
sV\u61c2
I125
sV\u914d
I126
sV\u9b51
I127
sV\u79d2
I128
sV\u83d6
I129
sV\u6c5f
I130
sV\u8fde
I131
sV\u7663
I132
sV\u60ec
I133
sV\u76f8
I134
sV\u9a7b
I135
sV\u597d
I136
sV\u9c7f
I137
sV\u6485
I138
sV\u6e89
I139
sV\u560e
I140
sV\u7a91
I141
sV\u7c95
I142
sV\u6216
I143
sV\u57a3
I144
sV\u94a5
I145
sV\u7c2a
I146
sV\u65af
I147
sV\u6fb3
I148
sV\u9e3e
I149
sV\u714c
I150
sV\u7b50
I151
sV\u66d9
I152
sV\u4e5e
I153
sV\u72e1
I154
sV\u9360
I155
sV\u7ee9
I156
sV\u80ed
I157
sV\u666e
I158
sV\u4ff3
I159
sV\u96f9
I160
sV\u5bfb
I161
sV\u5dff
I162
sV\u4f88
I163
sV\u518c
I164
sV\u7f13
I165
sV\u699c
I166
sV\u8d1f
I167
sV\u73a0
I168
sV\u75a4
I169
sV\u6a31
I170
sV\u8bb0
I171
sV\u8db4
I172
sV\u5ebe
I173
sV\u8e49
I174
sV\u6cca
I175
sV\u904d
I176
sV\u76ce
I177
sV\u5f53
I178
sV\u53e0
I179
sV\u7763
I180
sV\u55e4
I181
sV\u9ae6
I182
sV\u836b
I183
sV\u9177
I184
sV\u77f8
I185
sV\u6989
I186
sV\u7b95
I187
sV\u631a
I188
sV\u50a3
I189
sV\u5ea7
I190
sV\u7b2a
I191
sV\u68b3
I192
sV\u9536
I193
sV\u5e3c
I194
sV\u7abf
I195
sV\u80c3
I196
sV\u6848
I197
sV\u94cb
I198
sV\u764c
I199
sV\u98d3
I200
sV\u8058
I201
sV\u73e5
I202
sV\u79e9
I203
sV\u5b6a
I204
sV\u8bf5
I205
sV\u5cfb
I206
sV\u8782
I207
sV\u5c90
I208
sV\u8c1b
I209
sV\u6e9c
I210
sV\u74a0
I211
sV\u5929
I212
sV\u672d
I213
sV\u86ac
I214
sV\u6d31
I215
sV\u90b8
I216
sV\u59be
I217
sV\u6dc6
I218
sV\u544b
I219
sV\u71ce
I220
sV\u6657
I221
sV\u6c5b
I222
sV\u89de
I223
sV\u52e4
I224
sV\u846b
I225
sV\u826f
I226
sV\u6cf0
I227
sV\u9677
I228
sV\u5179
I229
sV\u7efc
I230
sV\u9a7f
I231
sV\u8304
I232
sV\u7c91
I233
sV\u7a95
I234
sV\u621a
I235
sV\u94a1
I236
sV\u7622
I237
sV\u5f3c
I238
sV\u81c3
I239
sV\u8fc7
I240
sV\u56cd
I241
sV\u7b54
I242
sV\u6edd
I243
sV\u5662
I244
sV\u9968
I245
sV\u5a6a
I246
sV\u86ed
I247
sV\u7476
I248
sV\u727a
I249
sV\u5bff
I250
sV\u8682
I251
sV\u8a8a
I252
sV\u9e92
I253
sV\u8717
I254
sV\u4e1d
I255
sV\u6f9c
I256
sV\u5421
I257
sV\u662d
I258
sV\u4eb2
I259
sV\u6a35
I260
sV\u8bb4
I261
sV\u7039
I262
sV\u964d
I263
sV\u534f
I264
sV\u7ed2
I265
sV\u84d6
I266
sV\u6d5b
I267
sV\u53e4
I268
sV\u59e8
I269
sV\u67ec
I270
sV\u836f
I271
sV\u5e7d
I272
sV\u7ffc
I273
sV\u6781
I274
sV\u8004
I275
sV\u6b89
I276
sV\u758d
I277
sV\u9814
I278
sV\u4e9b
I279
sV\u611a
I280
sV\u52a3
I281
sV\u60af
I282
sV\u4e30
I283
sV\u8d32
I284
sV\u5238
I285
sV\u5c3c
I286
sV\u5fd1
I287
sV\u9ad3
I288
sV\u8258
I289
sV\u71e5
I290
sV\u5f66
I291
sV\u636e
I292
sV\u7b7e
I293
sV\u8f86
I294
sV\u548c
I295
sV\u5e90
I296
sV\u6298
I297
sV\u70a4
I298
sV\u7aa8
I299
sV\u6f31
I300
sV\u88b4
I301
sV\u9cbc
I302
sV\u5bbe
I303
sV\u954d
I304
sV\u504f
I305
sV\u9f51
I306
sV\u9955
I307
sV\u6e5b
I308
sV\u8bde
I309
sV\u56e0
I310
sV\u866b
I311
sV\u72f8
I312
sV\u987f
I313
sV\u8700
I314
sV\u950c
I315
sV\u520e
I316
sV\u9f10
I317
sV\u8299
I318
sV\u4f9b
I319
sV\u7422
I320
sV\u67ab
I321
sV\u4f30
I322
sV\u8c32
I323
sV\u9636
I324
sV\u6740
I325
sV\u54cd
I326
sV\u754c
I327
sV\u91cf
I328
sV\u7f50
I329
sV\u58d5
I330
sV\u62d9
I331
sV\u8358
I332
sV\u9760
I333
sV\u5462
I334
sV\u626e
I335
sV\u6c72
I336
sV\u55f7
I337
sV\u5ffb
I338
sV\u59ff
I339
sV\u8482
I340
sV\u770b
I341
sV\u5f90
I342
sV\u8517
I343
sV\u6398
I344
sV\u77a0
I345
sV\u5025
I346
sV\u5a29
I347
sV\u642d
I348
sV\u8fb0
I349
sV\u7239
I350
sV\u5abe
I351
sV\u64c2
I352
sV\u72ce
I353
sV\u9e51
I354
sV\u5b53
I355
sV\u80da
I356
sV\u57e0
I357
sV\u94e2
I358
sV\u51e4
I359
sV\u5be8
I360
sV\u65ec
I361
sV\u4e71
I362
sV\u5c7d
I363
sV\u997f
I364
sV\u7b8d
I365
sV\u5d0e
I366
sV\u9010
I367
sV\u9614
I368
sV\u651e
I369
sV\u7126
I370
sV\u6eaf
I371
sV\u8d2e
I372
sV\u5c38
I373
sV\u76bf
I374
sV\u953e
I375
sV\u6840
I376
sV\u6e44
I377
sV\u82c7
I378
sV\u6448
I379
sV\u9ecf
I380
sV\u51d1
I381
sV\u57d5
I382
sV\u7654
I383
sV\u6dd9
I384
sV\u4f5a
I385
sV\u5b62
I386
sV\u9e64
I387
sV\u576a
I388
sV\u8bed
I389
sV\u6d6e
I390
sV\u50fb
I391
sV\u56ff
I392
sV\u5f25
I393
sV\u7ea4
I394
sV\u74a8
I395
sV\u6735
I396
sV\u86b4
I397
sV\u9cb8
I398
sV\u8941
I399
sV\u6bc2
I400
sV\u8549
I401
sV\u9b4d
I402
sV\u5453
I403
sV\u665f
I404
sV\u7267
I405
sV\u54e8
I406
sV\u886b
I407
sV\u97ea
I408
sV\u60f0
I409
sV\u8473
I410
sV\u66f4
I411
sV\u9a77
I412
sV\u7cf8
I413
sV\u72fc
I414
sV\u6881
I415
sV\u6e85
I416
sV\u7a8d
I417
sV\u5212
I418
sV\u6816
I419
sV\u6e1a
I420
sV\u829d
I421
sV\u641e
I422
sV\u94a9
I423
sV\u69ab
I424
sV\u762a
I425
sV\u77bf
I426
sV\u8dc3
I427
sV\u4ec5
I428
sV\u83c7
I429
sV\u6548
I430
sV\u7150
I431
sV\u8d58
I432
sV\u835c
I433
sV\u78e1
I434
sV\u5a62
I435
sV\u7ee5
I436
sV\u9568
I437
sV\u566a
I438
sV\u4fef
I439
sV\u80f1
I440
sV\u51fb
I441
sV\u747e
I442
sV\u4f84
I443
sV\u6307
I444
sV\u8086
I445
sV\u868a
I446
sV\u5b8c
I447
sV\u9c8e
I448
sV\u6d98
I449
sV\u5821
I450
sV\u7fa4
I451
sV\u5429
I452
sV\u6635
I453
sV\u723d
I454
sV\u54be
I455
sV\u60c6
I456
sV\u594b
I457
sV\u9051
I458
sV\u5553
I459
sV\u72d2
I460
sV\u9655
I461
sV\u675f
I462
sV\u5fe4
I463
sV\u90e6
I464
sV\u55e8
I465
sV\u96ea
I466
sV\u8f6f
I467
sV\u67f4
I468
sV\u5c79
I469
sV\u527d
I470
sV\u6b81
I471
sV\u8a00
I472
sV\u6d85
I473
sV\u8c04
I474
sV\u6789
I475
sV\u7391
I476
sV\u5112
I477
sV\u8f99
I478
sV\u819d
I479
sV\u50a7
I480
sV\u6aab
I481
sV\u8132
I482
sV\u5e38
I483
sV\u503c
I484
sV\u973e
I485
sV\u9acb
I486
sV\u784c
I487
sV\u9ccf
I488
sV\u53d1
I489
sV\u7be1
I490
sV\u5962
I491
sV\u5366
I492
sV\u77e9
I493
sV\u9668
I494
sV\u556a
I495
sV\u6f6e
I496
sV\u83f1
I497
sV\u777e
I498
sV\u8386
I499
sV\u7a0b
I500
sV\u9192
I501
sV\u5494
I502
sV\u4f19
I503
sV\u6e98
I504
sV\u821b
I505
sV\u7aa0
I506
sV\u9e23
I507
sV\u7ca4
I508
sV\u5729
I509
sV\u692d
I510
sV\u4fae
I511
sV\u5bb6
I512
sV\u9eb8
I513
sV\u4e43
I514
sV\u8d45
I515
sV\u63c6
I516
sV\u8749
I517
sV\u5c4f
I518
sV\u7fce
I519
sV\u9351
I520
sV\u9555
I521
sV\u4ed8
I522
sV\u625b
I523
sV\u8dda
I524
sV\u95ea
I525
sV\u9877
I526
sV\u5f79
I527
sV\u7ef8
I528
sV\u517d
I529
sV\u6c85
I530
sV\u8708
I531
sV\u788d
I532
sV\u5012
I533
sV\u6c1a
I534
sV\u809d
I535
sV\u9aa1
I536
sV\u51a7
I537
sV\u742a
I538
sV\u6daf
I539
sV\u8e2e
I540
sV\u67b3
I541
sV\u73bb
I542
sV\u6748
I543
sV\u7554
I544
sV\u9b60
I545
sV\u6e6e
I546
sV\u82f1
I547
sV\u7a76
I548
sV\u53fb
I549
sV\u90fd
I550
sV\u767e
I551
sV\u8882
I552
sV\u7b0b
I553
sV\u5594
I554
sV\u4e19
I555
sV\u4eae
I556
sV\u6435
I557
sV\u4f43
I558
sV\u68c2
I559
sV\u62c6
I560
sV\u7ece
I561
sV\u4fd8
I562
sV\u86de
I563
sV\u7167
I564
sV\u94ea
I565
sV\u9977
I566
sV\u957f
I567
sV\u8c00
I568
sV\u7591
I569
sV\u7f22
I570
sV\u6cab
I571
sV\u732a
I572
sV\u7eb7
I573
sV\u6c40
I574
sV\u6a44
I575
sV\u86c7
I576
sV\u5fcd
I577
sV\u55d1
I578
sV\u90d3
I579
sV\u53d5
I580
sV\u69d9
I581
sV\u5f62
I582
sV\u5566
I583
sV\u9068
I584
sV\u8fed
I585
sV\u696e
I586
sV\u5ef7
I587
sV\u52ff
I588
sV\u6803
I589
sV\u6607
I590
sV\u7c0b
I591
sV\u5490
I592
sV\u821f
I593
sV\u8eac
I594
sV\u96bc
I595
sV\u8d41
I596
sV\u6fc2
I597
sV\u5c4b
I598
sV\u9551
I599
sV\u8dd6
I600
sV\u8bda
I601
sV\u8c6b
I602
sV\u62f4
I603
sV\u5979
I604
sV\u76fc
I605
sV\u6c81
I606
sV\u6089
I607
sV\u9510
I608
sV\u4f97
I609
sV\u6c16
I610
sV\u869d
I611
sV\u9aa5
I612
sV\u7426
I613
sV\u722a
I614
sV\u5938
I615
sV\u903e
I616
sV\u6148
I617
sV\u54d1
I618
sV\u66dd
I619
sV\u5e62
I620
sV\u7ae5
I621
sV\u5466
I622
sV\u70e9
I623
sV\u526a
I624
sV\u7a7a
I625
sV\u707e
I626
sV\u828a
I627
sV\u7b0f
I628
sV\u679c
I629
sV\u5a25
I630
sV\u5029
I631
sV\u71a8
I632
sV\u6e2d
I633
sV\u85b0
I634
sV\u83b4
I635
sV\u5aba
I636
sV\u8c41
I637
sV\u6ec2
I638
sV\u5d4b
I639
sV\u76d2
I640
sV\u655b
I641
sV\u635f
I642
sV\u80de
I643
sV\u9ee2
I644
sV\u5be4
I645
sV\u8d6b
I646
sV\u63f4
I647
sV\u79f8
I648
sV\u6389
I649
sV\u7d8d
I650
sV\u7791
I651
sV\u9610
I652
sV\u9014
I653
sV\u631e
I654
sV\u7d22
I655
sV\u99a5
I656
sV\u54a7
I657
sV\u7726
I658
sV\u68af
I659
sV\u543c
I660
sV\u933e
I661
sV\u6248
I662
sV\u5dcd
I663
sV\u6bd9
I664
sV\u845c
I665
sV\u7fe1
I666
sV\u5766
I667
sV\u73e9
I668
sV\u6572
I669
sV\u797a
I670
sV\u95fd
I671
sV\u737e
I672
sV\u818a
I673
sV\u5c8c
I674
sV\u7ea0
I675
sV\u9427
I676
sV\u6731
I677
sV\u80b4
I678
sV\u7b39
I679
sV\u9ab8
I680
sV\u59ba
I681
sV\u94bc
I682
sV\u8349
I683
sV\u61ca
I684
sV\u9751
I685
sV\u75d2
I686
sV\u6c57
I687
sV\u58e4
I688
sV\u97e6
I689
sV\u66f0
I690
sV\u8273
I691
sV\u60f4
I692
sV\u907f
I693
sV\u6e81
I694
sV\u6885
I695
sV\u6289
I696
sV\u7691
I697
sV\u5412
I698
sV\u7095
I699
sV\u5ba3
I700
sV\u55a7
I701
sV\u7626
I702
sV\u63b3
I703
sV\u9e36
I704
sV\u77bb
I705
sV\u4ec1
I706
sV\u8bc3
I707
sV\u7750
I708
sV\u4e56
I709
sV\u7ee1
I710
sV\u72e9
I711
sV\u86f1
I712
sV\u5df7
I713
sV\u9af9
I714
sV\u94fd
I715
sV\u51ff
I716
sV\u8c82
I717
sV\u9492
I718
sV\u659c
I719
sV\u9b23
I720
sV\u79a4
I721
sV\u5229
I722
sV\u6631
I723
sV\u6035
I724
sV\u5eb6
I725
sV\u52be
I726
sV\u8e41
I727
sV\u8845
I728
sV\u8249
I729
sV\u60ca
I730
sV\u594f
I731
sV\u5353
I732
sV\u74d2
I733
sV\u82de
I734
sV\u5fe0
I735
sV\u53e8
I736
sV\u8f6b
I737
sV\u6dec
I738
sV\u547d
I739
sV\u75fc
I740
sV\u917f
I741
sV\u9000
I742
sV\u7785
I743
sV\u9604
I744
sV\u5f0a
I745
sV\u820c
I746
sV\u7116
I747
sV\u5e9f
I748
sV\u70ab
I749
sV\u6f2a
I750
sV\u952e
I751
sV\u5830
I752
sV\u7cb3
I753
sV\u9b32
I754
sV\u8d3e
I755
sV\u94c3
I756
sV\u6850
I757
sV\u5156
I758
sV\u575a
I759
sV\u7bdd
I760
sV\u67e5
I761
sV\u56ef
I762
sV\u8bfd
I763
sV\u4eff
I764
sV\u5080
I765
sV\u7403
I766
sV\u9986
I767
sV\u9f8a
I768
sV\u660f
I769
sV\u6c13
I770
sV\u4e94
I771
sV\u7498
I772
sV\u7a9c
I773
sV\u9e1f
I774
sV\u60a0
I775
sV\u6539
I776
sV\u84b8
I777
sV\u5443
I778
sV\u73c2
I779
sV\u79c6
I780
sV\u7fca
I781
sV\u65ce
I782
sV\u6bd2
I783
sV\u89e6
I784
sV\u8fea
I785
sV\u72ec
I786
sV\u7ef4
I787
sV\u8e7f
I788
sV\u9704
I789
sV\u5806
I790
sV\u7c89
I791
sV\u830c
I792
sV\u8910
I793
sV\u9499
I794
sV\u80a1
I795
sV\u63b7
I796
sV\u8036
I797
sV\u69bb
I798
sV\u634c
I799
sV\u4ed5
I800
sV\u5c5e
I801
sV\u8160
I802
sV\u51eb
I803
sV\u5df3
I804
sV\u6076
I805
sV\u667a
I806
sV\u6c7e
I807
sV\u5180
I808
sV\u5784
I809
sV\u7b07
I810
sV\u9886
I811
sV\u6da8
I812
sV\u5ab2
I813
sV\u6a3d
I814
sV\u8bbc
I815
sV\u9041
I816
sV\u5543
I817
sV\u72c2
I818
sV\u9645
I819
sV\u7eca
I820
sV\u64ce
I821
sV\u7357
I822
sV\u795b
I823
sV\u7f5f
I824
sV\u9cde
I825
sV\u6563
I826
sV\u6b67
I827
sV\u79f0
I828
sV\u8377
I829
sV\u65f8
I830
sV\u8f7f
I831
sV\u800c
I832
sV\u6b91
I833
sV\u6d95
I834
sV\u8c14
I835
sV\u7316
I836
sV\u5a9b
I837
sV\u751a
I838
sV\u8fa9
I839
sV\u6d2a
I840
sV\u502c
I841
sV\u7eb3
I842
sV\u5c34
I843
sV\u8336
I844
sV\u853a
I845
sV\u6cbf
I846
sV\u53c1
I847
sV\u55c5
I848
sV\u7444
I849
sV\u82cb
I850
sV\u6c54
I851
sV\u5356
I852
sV\u63e1
I853
sV\u65e5
I854
sV\u6376
I855
sV\u87f9
I856
sV\u5484
I857
sV\u640f
I858
sV\u9017
I859
sV\u789c
I860
sV\u62a0
I861
sV\u64a4
I862
sV\u90ac
I863
sV\u57ae
I864
sV\u9ab0
I865
sV\u59b2
I866
sV\u693d
I867
sV\u7bc6
I868
sV\u4e53
I869
sV\u93d6
I870
sV\u6867
I871
sV\u8be6
I872
sV\u4ee8
I873
sV\u8dea
I874
sV\u516d
I875
sV\u70ec
I876
sV\u5b71
I877
sV\u9e73
I878
sV\u7281
I879
sV\u9504
I880
sV\u5a06
I881
sV\u5c0a
I882
sV\u608d
I883
sV\u5197
I884
sV\u9699
I885
sV\u5b9b
I886
sV\u741a
I887
sV\u989d
I888
sV\u82a1
I889
sV\u73ab
I890
sV\u6c2a
I891
sV\u75af
I892
sV\u962e
I893
sV\u5d34
I894
sV\u61b7
I895
sV\u8236
I896
sV\u6dbf
I897
sV\u5ec9
I898
sV\u614c
I899
sV\u85cf
I900
sV\u6d54
I901
sV\u5256
I902
sV\u8360
I903
sV\u8564
I904
sV\u6ee9
I905
sV\u8f68
I906
sV\u53eb
I907
sV\u90ed
I908
sV\u55ef
I909
sV\u6276
I910
sV\u86f9
I911
sV\u647a
I912
sV\u6e7e
I913
sV\u9082
I914
sV\u5584
I915
sV\u9a86
I916
sV\u5f88
I917
sV\u6f13
I918
sV\u8892
I919
sV\u63a0
I920
sV\u65a4
I921
sV\u9bb0
I922
sV\u683d
I923
sV\u70c2
I924
sV\u5947
I925
sV\u9e49
I926
sV\u7cca
I927
sV\u4f53
I928
sV\u68d2
I929
sV\u7b5b
I930
sV\u59dc
I931
sV\u4fe8
I932
sV\u956f
I933
sV\u8c10
I934
sV\u5c9b
I935
sV\u4ea7
I936
sV\u562c
I937
sV\u72af
I938
sV\u78b3
I939
sV\u5a34
I940
sV\u6cbb
I941
sV\u7440
I942
sV\u664c
I943
sV\u82cf
I944
sV\u6c50
I945
sV\u5556
I946
sV\u535a
I947
sV\u9e5c
I948
sV\u8868
I949
sV\u97ed
I950
sV\u716e
I951
sV\u58f3
I952
sV\u7f72
I953
sV\u637a
I954
sV\u8ffd
I955
sV\u5480
I956
sV\u620f
I957
sV\u6813
I958
sV\u9617
I959
sV\u7098
I960
sV\u62a4
I961
sV\u68a8
I962
sV\u772d
I963
sV\u9541
I964
sV\u5043
I965
sV\u6fd2
I966
sV\u6063
I967
sV\u946b
I968
sV\u576d
I969
sV\u5b75
I970
sV\u7af4
I971
sV\u7481
I972
sV\u9500
I973
sV\u5c06
I974
sV\u7889
I975
sV\u9099
I976
sV\u9e9d
I977
sV\u5b9f
I978
sV\u84a1
I979
sV\u82a5
I980
sV\u4fa7
I981
sV\u6c26
I982
sV\u75ab
I983
sV\u6a2a
I984
sV\u73af
I985
sV\u902e
I986
sV\u5b34
I987
sV\u67b7
I988
sV\u823a
I989
sV\u4f3c
I990
sV\u6bbf
I991
sV\u54c1
I992
sV\u7540
I993
sV\u7948
I994
sV\u83cf
I995
sV\u6b54
I996
sV\u70d9
I997
sV\u7edd
I998
sV\u585e
I999
sV\u62e5
I1000
sV\u8364
I1001
sV\u55eb
I1002
sV\u53ef
I1003
sV\u627a
I1004
sV\u5580
I1005
sV\u5384
I1006
sV\u7f07
I1007
sV\u9c86
I1008
sV\u5988
I1009
sV\u9a8a
I1010
sV\u5019
I1011
sV\u7198
I1012
sV\u5e1d
I1013
sV\u9b1f
I1014
sV\u69a8
I1015
sV\u8fbc
I1016
sV\u5143
I1017
sV\u76c2
I1018
sV\u94d6
I1019
sV\u98de
I1020
sV\u956b
I1021
sV\u77ec
I1022
sV\u5c71
I1023
sV\u5a75
I1024
sV\u9600
I1025
sV\u9004
I1026
sV\u840c
I1027
sV\u6995
I1028
sV\u5497
I1029
sV\u711a
I1030
sV\u589f
I1031
sV\u7b1e
I1032
sV\u8ba9
I1033
sV\u542c
I1034
sV\u70af
I1035
sV\u64b7
I1036
sV\u86cb
I1037
sV\u4fd1
I1038
sV\u6854
I1039
sV\u515a
I1040
sV\u56eb
I1041
sV\u95ed
I1042
sV\u4efb
I1043
sV\u7c07
I1044
sV\u998a
I1045
sV\u600f
I1046
sV\u838e
I1047
sV\u9417
I1048
sV\u5319
I1049
sV\u8223
I1050
sV\u8c27
I1051
sV\u752d
I1052
sV\u53ae
I1053
sV\u7f31
I1054
sV\u6339
I1055
sV\u82b8
I1056
sV\u6d3d
I1057
sV\u5243
I1058
sV\u75c2
I1059
sV\u9b49
I1060
sV\u7457
I1061
sV\u52d8
I1062
sV\u6263
I1063
sV\u8fe6
I1064
sV\u5f71
I1065
sV\u7ef0
I1066
sV\u9a73
I1067
sV\u6cfc
I1068
sV\u887f
I1069
sV\u9700
I1070
sV\u7085
I1071
sV\u5e06
I1072
sV\u8914
I1073
sV\u701a
I1074
sV\u80a5
I1075
sV\u682a
I1076
sV\u552c
I1077
sV\u5934
I1078
sV\u8a3e
I1079
sV\u7740
I1080
sV\u7144
I1081
sV\u5ac9
I1082
sV\u87cb
I1083
sV\u654c
I1084
sV\u4ed1
I1085
sV\u8bd3
I1086
sV\u6954
I1087
sV\u72d9
I1088
sV\u505a
I1089
sV\u8760
I1090
sV\u4e66
I1091
sV\u94ed
I1092
sV\u51ef
I1093
sV\u5bf3
I1094
sV\u6676
I1095
sV\u82f9
I1096
sV\u607a
I1097
sV\u5b88
I1098
sV\u670b
I1099
sV\u988a
I1100
sV\u610f
I1101
sV\u9517
I1102
sV\u5219
I1103
sV\u7398
I1104
sV\u5c1d
I1105
sV\u8d27
I1106
sV\u5343
I1107
sV\u5d47
I1108
sV\u7ec6
I1109
sV\u78ca
I1110
sV\u62ce
I1111
sV\u8e51
I1112
sV\u53d8
I1113
sV\u795f
I1114
sV\u6363
I1115
sV\u916f
I1116
sV\u7ff0
I1117
sV\u63f8
I1118
sV\u8f7b
I1119
sV\u6dfc
I1120
sV\u897f
I1121
sV\u7981
I1122
sV\u5106
I1123
sV\u8010
I1124
sV\u6795
I1125
sV\u7f1a
I1126
sV\u6b22
I1127
sV\u672a
I1128
sV\u7eaf
I1129
sV\u5634
I1130
sV\u8936
I1131
sV\u60bb
I1132
sV\u7840
I1133
sV\u9cc3
I1134
sV\u5fc5
I1135
sV\u6050
I1136
sV\u84d3
I1137
sV\u6654
I1138
sV\u5956
I1139
sV\u65e9
I1140
sV\u58eb
I1141
sV\u7d6e
I1142
sV\u97f5
I1143
sV\u8df9
I1144
sV\u6f7a
I1145
sV\u83fd
I1146
sV\u5880
I1147
sV\u5e84
I1148
sV\u680b
I1149
sV\u6413
I1150
sV\u7c98
I1151
sV\u901b
I1152
sV\u531d
I1153
sV\u961f
I1154
sV\u8c23
I1155
sV\u4f25
I1156
sV\u7131
I1157
sV\u90b0
I1158
sV\u6d39
I1159
sV\u633d
I1160
sV\u9549
I1161
sV\u4e4f
I1162
sV\u8151
I1163
sV\u63d2
I1164
sV\u7a57
I1165
sV\u8be2
I1166
sV\u4ee4
I1167
sV\u6267
I1168
sV\u5171
I1169
sV\u76f4
I1170
sV\u6cf8
I1171
sV\u62fc
I1172
sV\u9508
I1173
sV\u8110
I1174
sV\u5b97
I1175
sV\u7816
I1176
sV\u519b
I1177
sV\u6026
I1178
sV\u7faf
I1179
sV\u75b3
I1180
sV\u5734
I1181
sV\u6bb7
I1182
sV\u8e3a
I1183
sV\u58c1
I1184
sV\u7940
I1185
sV\u7f44
I1186
sV\u54c9
I1187
sV\u6b4c
I1188
sV\u85d3
I1189
sV\u7cd9
I1190
sV\u6ee5
I1191
sV\u8568
I1192
sV\u59eb
I1193
sV\u9aed
I1194
sV\u55f3
I1195
sV\u7272
I1196
sV\u6876
I1197
sV\u9a82
I1198
sV\u5f84
I1199
sV\u690b
I1200
sV\u6f0f
I1201
sV\u8292
I1202
sV\u521d
I1203
sV\u8d23
I1204
sV\u4e25
I1205
sV\u8327
I1206
sV\u52b2
I1207
sV\u8db8
I1208
sV\u4eba
I1209
sV\u623d
I1210
sV\u83bc
I1211
sV\u9e45
I1212
sV\u5347
I1213
sV\u76ca
I1214
sV\u4f4f
I1215
sV\u62d2
I1216
sV\u6d63
I1217
sV\u4fe4
I1218
sV\u6367
I1219
sV\u9573
I1220
sV\u6df8
I1221
sV\u817b
I1222
sV\u5306
I1223
sV\u9608
I1224
sV\u4f0e
I1225
sV\u8210
I1226
sV\u5897
I1227
sV\u9f99
I1228
sV\u529b
I1229
sV\u771e
I1230
sV\u8ba1
I1231
sV\u5230
I1232
sV\u5434
I1233
sV\u4e38
I1234
sV\u62bb
I1235
sV\u8d3a
I1236
sV\u5dc5
I1237
sV\u684c
I1238
sV\u6454
I1239
sV\u5b56
I1240
sV\u9e58
I1241
sV\u575e
I1242
sV\u6be1
I1243
sV\u67e9
I1244
sV\u5cef
I1245
sV\u7f6e
I1246
sV\u7172
I1247
sV\u95f5
I1248
sV\u8ff9
I1249
sV\u677e
I1250
sV\u6c0f
I1251
sV\u8f8e
I1252
sV\u6613
I1253
sV\u709c
I1254
sV\u6ca4
I1255
sV\u66a8
I1256
sV\u5fae
I1257
sV\u51b2
I1258
sV\u7535
I1259
sV\u94b4
I1260
sV\u80bc
I1261
sV\u9b41
I1262
sV\u5047
I1263
sV\u75ca
I1264
sV\u8351
I1265
sV\u61d2
I1266
sV\u725b
I1267
sV\u745f
I1268
sV\u596d
I1269
sV\u78ec
I1270
sV\u5371
I1271
sV\u72f0
I1272
sV\u5575
I1273
sV\u74f4
I1274
sV\u8877
I1275
sV\u7a81
I1276
sV\u5802
I1277
sV\u5206
I1278
sV\u9708
I1279
sV\u540a
I1280
sV\u4e0e
I1281
sV\u6291
I1282
sV\u6495
I1283
sV\u5997
I1284
sV\u909d
I1285
sV\u559f
I1286
sV\u4fa3
I1287
sV\u6822
I1288
sV\u86a9
I1289
sV\u7bab
I1290
sV\u642a
I1291
sV\u9e2e
I1292
sV\u77b3
I1293
sV\u69b7
I1294
sV\u4f38
I1295
sV\u5ac1
I1296
sV\u91c7
I1297
sV\u8bcb
I1298
sV\u6350
I1299
sV\u7ed9
I1300
sV\u70dd
I1301
sV\u6ce5
I1302
sV\u8d64
I1303
sV\u94f5
I1304
sV\u80fd
I1305
sV\u667e
I1306
sV\u7f03
I1307
sV\u9882
I1308
sV\u9286
I1309
sV\u948a
I1310
sV\u5e19
I1311
sV\u951f
I1312
sV\u6da4
I1313
sV\u782d
I1314
sV\u7231
I1315
sV\u50b2
I1316
sV\u7435
I1317
sV\u884d
I1318
sV\u7957
I1319
sV\u5fd8
I1320
sV\u6167
I1321
sV\u82e6
I1322
sV\u9773
I1323
sV\u5475
I1324
sV\u75f4
I1325
sV\u837b
I1326
sV\u5f02
I1327
sV\u7b85
I1328
sV\u5506
I1329
sV\u6f8d
I1330
sV\u8e0c
I1331
sV\u6591
I1332
sV\u8214
I1333
sV\u5e97
I1334
sV\u9999
I1335
sV\u549b
I1336
sV\u529f
I1337
sV\u8ba5
I1338
sV\u632a
I1339
sV\u992e
I1340
sV\u70b3
I1341
sV\u9732
I1342
sV\u6eb7
I1343
sV\u62bf
I1344
sV\u813e
I1345
sV\u5bc5
I1346
sV\u96c7
I1347
sV\u51c9
I1348
sV\u6254
I1349
sV\u5d56
I1350
sV\u5b5a
I1351
sV\u6de1
I1352
sV\u95f1
I1353
sV\u4ef7
I1354
sV\u5c80
I1355
sV\u4e8c
I1356
sV\u5919
I1357
sV\u7898
I1358
sV\u60a8
I1359
sV\u7f2d
I1360
sV\u59ae
I1361
sV\u7531
I1362
sV\u94b0
I1363
sV\u6939
I1364
sV\u673d
I1365
sV\u9b45
I1366
sV\u9149
I1367
sV\u73ca
I1368
sV\u67d2
I1369
sV\u745b
I1370
sV\u725f
I1371
sV\u6863
I1372
sV\u8fe2
I1373
sV\u5f6d
I1374
sV\u9a6f
I1375
sV\u5375
I1376
sV\u66fc
I1377
sV\u827f
I1378
sV\u5e02
I1379
sV\u5406
I1380
sV\u7089
I1381
sV\u520a
I1382
sV\u6491
I1383
sV\u6295
I1384
sV\u5f97
I1385
sV\u7a1a
I1386
sV\u539f
I1387
sV\u701e
I1388
sV\u80a9
I1389
sV\u622a
I1390
sV\u5530
I1391
sV\u9632
I1392
sV\u8c36
I1393
sV\u8dcb
I1394
sV\u4ecd
I1395
sV\u8bcf
I1396
sV\u5a5a
I1397
sV\u6ce1
I1398
sV\u8d60
I1399
sV\u60e9
I1400
sV\u5deb
I1401
sV\u786e
I1402
sV\u94f1
I1403
sV\u51f3
I1404
sV\u6c76
I1405
sV\u88f9
I1406
sV\u9e82
I1407
sV\u9486
I1408
sV\u5188
I1409
sV\u6d0b
I1410
sV\u5819
I1411
sV\u951b
I1412
sV\u61a8
I1413
sV\u95b0
I1414
sV\u7235
I1415
sV\u93b4
I1416
sV\u6839
I1417
sV\u7ec2
I1418
sV\u5747
I1419
sV\u7f57
I1420
sV\u9cd6
I1421
sV\u59d8
I1422
sV\u755b
I1423
sV\u90de
I1424
sV\u6963
I1425
sV\u84e6
I1426
sV\u5471
I1427
sV\u75f0
I1428
sV\u857b
I1429
sV\u7f81
I1430
sV\u5d02
I1431
sV\u7985
I1432
sV\u5706
I1433
sV\u7389
I1434
sV\u8c0c
I1435
sV\u5c97
I1436
sV\u7f16
I1437
sV\u731e
I1438
sV\u6726
I1439
sV\u7eab
I1440
sV\u5c2c
I1441
sV\u9532
I1442
sV\u66bb
I1443
sV\u53c9
I1444
sV\u7248
I1445
sV\u82d3
I1446
sV\u7bd9
I1447
sV\u595a
I1448
sV\u535e
I1449
sV\u6fe1
I1450
sV\u63e9
I1451
sV\u52f3
I1452
sV\u7407
I1453
sV\u5288
I1454
sV\u680f
I1455
sV\u6213
I1456
sV\u7a98
I1457
sV\u749c
I1458
sV\u901f
I1459
sV\u8427
I1460
sV\u62a8
I1461
sV\u9f41
I1462
sV\u4e4b
I1463
sV\u71ca
I1464
sV\u6bce
I1465
sV\u8155
I1466
sV\u6467
I1467
sV\u9e6b
I1468
sV\u81ea
I1469
sV\u7cec
I1470
sV\u5175
I1471
sV\u867b
I1472
sV\u807f
I1473
sV\u6691
I1474
sV\u579b
I1475
sV\u781a
I1476
sV\u949d
I1477
sV\u6c22
I1478
sV\u82a9
I1479
sV\u602a
I1480
sV\u5730
I1481
sV\u73b3
I1482
sV\u823e
I1483
sV\u58c5
I1484
sV\u95c7
I1485
sV\u52c9
I1486
sV\u6750
I1487
sV\u7ad9
I1488
sV\u585a
I1489
sV\u955c
I1490
sV\u6ee1
I1491
sV\u62e9
I1492
sV\u8368
I1493
sV\u5feb
I1494
sV\u53f3
I1495
sV\u6e76
I1496
sV\u627e
I1497
sV\u5f80
I1498
sV\u7b03
I1499
sV\u9c82
I1500
sV\u5984
I1501
sV\u9686
I1502
sV\u541d
I1503
sV\u63a8
I1504
sV\u54b2
I1505
sV\u91b4
I1506
sV\u4eb6
I1507
sV\u8bb8
I1508
sV\u643d
I1509
sV\u76c6
I1510
sV\u70ca
I1511
sV\u8651
I1512
sV\u64d2
I1513
sV\u775b
I1514
sV\u98da
I1515
sV\u55dc
I1516
sV\u6b63
I1517
sV\u80ea
I1518
sV\u996f
I1519
sV\u5671
I1520
sV\u8d77
I1521
sV\u65fc
I1522
sV\u817f
I1523
sV\u6302
I1524
sV\u908b
I1525
sV\u968f
I1526
sV\u5f95
I1527
sV\u6297
I1528
sV\u8418
I1529
sV\u6e9f
I1530
sV\u9020
I1531
sV\u622c
I1532
sV\u6e34
I1533
sV\u7a3c
I1534
sV\u73cd
I1535
sV\u524c
I1536
sV\u79d1
I1537
sV\u7fd5
I1538
sV\u5e54
I1539
sV\u82d7
I1540
sV\u51e1
I1541
sV\u94e3
I1542
sV\u5de9
I1543
sV\u60eb
I1544
sV\u7f6a
I1545
sV\u8870
I1546
sV\u6cf3
I1547
sV\u8e74
I1548
sV\u72f7
I1549
sV\u5176
I1550
sV\u9a7c
I1551
sV\u7eff
I1552
sV\u6684
I1553
sV\u6c88
I1554
sV\u5c13
I1555
sV\u71b6
I1556
sV\u9e3f
I1557
sV\u80c0
I1558
sV\u86c4
I1559
sV\u6a47
I1560
sV\u4fca
I1561
sV\u5bd2
I1562
sV\u9ed4
I1563
sV\u8559
I1564
sV\u64d8
I1565
sV\u4e5f
I1566
sV\u9765
I1567
sV\u5a67
I1568
sV\u7ce8
I1569
sV\u636d
I1570
sV\u8bf2
I1571
sV\u7579
I1572
sV\u918b
I1573
sV\u6e0a
I1574
sV\u740e
I1575
sV\u5e95
I1576
sV\u699b
I1577
sV\u75a3
I1578
sV\u82ad
I1579
sV\u88b1
I1580
sV\u6930
I1581
sV\u7538
I1582
sV\u59bb
I1583
sV\u7b3c
I1584
sV\u6cc9
I1585
sV\u8e4a
I1586
sV\u72cd
I1587
sV\u7ed5
I1588
sV\u665a
I1589
sV\u8fdf
I1590
sV\u6c5e
I1591
sV\u7262
I1592
sV\u67ef
I1593
sV\u6df3
I1594
sV\u8f74
I1595
sV\u5076
I1596
sV\u79fb
I1597
sV\u5c7e
I1598
sV\u8001
I1599
sV\u8605
I1600
sV\u6784
I1601
sV\u6d88
I1602
sV\u510b
I1603
sV\u7f94
I1604
sV\u8096
I1605
sV\u51a0
I1606
sV\u98a6
I1607
sV\u64ae
I1608
sV\u5439
I1609
sV\u7cbe
I1610
sV\u81c0
I1611
sV\u6b47
I1612
sV\u4eca
I1613
sV\u54ce
I1614
sV\u5ad2
I1615
sV\u4f5f
I1616
sV\u626d
I1617
sV\u5bfc
I1618
sV\u518d
I1619
sV\u948f
I1620
sV\u9e93
I1621
sV\u7912
I1622
sV\u6c9f
I1623
sV\u4f1e
I1624
sV\u78a7
I1625
sV\u9e28
I1626
sV\u4eb3
I1627
sV\u8db5
I1628
sV\u6c34
I1629
sV\u7638
I1630
sV\u5cbf
I1631
sV\u65c5
I1632
sV\u6fc9
I1633
sV\u4e48
I1634
sV\u8d4a
I1635
sV\u504c
I1636
sV\u7bd1
I1637
sV\u80d7
I1638
sV\u6f5e
I1639
sV\u53e1
I1640
sV\u70f7
I1641
sV\u987c
I1642
sV\u8301
I1643
sV\u6280
I1644
sV\u540f
I1645
sV\u8f9e
I1646
sV\u7321
I1647
sV\u52a0
I1648
sV\u7525
I1649
sV\u54a4
I1650
sV\u7f29
I1651
sV\u822b
I1652
sV\u5739
I1653
sV\u6643
I1654
sV\u84c4
I1655
sV\u57ce
I1656
sV\u59d2
I1657
sV\u9cd4
I1658
sV\u8759
I1659
sV\u72e0
I1660
sV\u74e4
I1661
sV\u87ee
I1662
sV\u7779
I1663
sV\u95fa
I1664
sV\u8783
I1665
sV\u6002
I1666
sV\u4e89
I1667
sV\u508d
I1668
sV\u7812
I1669
sV\u8718
I1670
sV\u6d9f
I1671
sV\u4e1e
I1672
sV\u9524
I1673
sV\u79a7
I1674
sV\u51b7
I1675
sV\u7738
I1676
sV\u793c
I1677
sV\u8042
I1678
sV\u64c5
I1679
sV\u6ec9
I1680
sV\u8c4a
I1681
sV\u5b50
I1682
sV\u7cd5
I1683
sV\u8bdb
I1684
sV\u8ddf
I1685
sV\u54e5
I1686
sV\u65ef
I1687
sV\u8d74
I1688
sV\u997c
I1689
sV\u6380
I1690
sV\u8e09
I1691
sV\u6f88
I1692
sV\u900d
I1693
sV\u550f
I1694
sV\u7b90
I1695
sV\u5f13
I1696
sV\u6619
I1697
sV\u681d
I1698
sV\u90a2
I1699
sV\u7425
I1700
sV\u5fa8
I1701
sV\u832b
I1702
sV\u66ae
I1703
sV\u72b6
I1704
sV\u5639
I1705
sV\u9b3b
I1706
sV\u74ba
I1707
sV\u7ebe
I1708
sV\u83c0
I1709
sV\u6743
I1710
sV\u8fc8
I1711
sV\u91cc
I1712
sV\u754f
I1713
sV\u67d8
I1714
sV\u73e0
I1715
sV\u75e4
I1716
sV\u9e69
I1717
sV\u606d
I1718
sV\u86ee
I1719
sV\u6a71
I1720
sV\u57f8
I1721
sV\u94fa
I1722
sV\u8083
I1723
sV\u8e87
I1724
sV\u948b
I1725
sV\u9893
I1726
sV\u5b95
I1727
sV\u6697
I1728
sV\u8018
I1729
sV\u6c9b
I1730
sV\u7ea7
I1731
sV\u87ad
I1732
sV\u6c30
I1733
sV\u56b7
I1734
sV\u65c1
I1735
sV\u77cd
I1736
sV\u564c
I1737
sV\u5c50
I1738
sV\u6556
I1739
sV\u4fdd
I1740
sV\u695e
I1741
sV\u55e1
I1742
sV\u53e5
I1743
sV\u9ee7
I1744
sV\u866c
I1745
sV\u62ef
I1746
sV\u5576
I1747
sV\u7cfb
I1748
sV\u7aff
I1749
sV\u8305
I1750
sV\u6284
I1751
sV\u4e07
I1752
sV\u970d
I1753
sV\u7325
I1754
sV\u58a8
I1755
sV\u73ba
I1756
sV\u79be
I1757
sV\u6043
I1758
sV\u82c4
I1759
sV\u96cc
I1760
sV\u9cd0
I1761
sV\u5fd2
I1762
sV\u60d8
I1763
sV\u78e8
I1764
sV\u676d
I1765
sV\u6602
I1766
sV\u8f87
I1767
sV\u6a0a
I1768
sV\u938f
I1769
sV\u5c91
I1770
sV\u6797
I1771
sV\u8118
I1772
sV\u6d9b
I1773
sV\u5622
I1774
sV\u672c
I1775
sV\u6d30
I1776
sV\u90b9
I1777
sV\u9ebd
I1778
sV\u5bbf
I1779
sV\u62c5
I1780
sV\u8c46
I1781
sV\u68c9
I1782
sV\u5b54
I1783
sV\u8ddb
I1784
sV\u4edd
I1785
sV\u8bdf
I1786
sV\u8d70
I1787
sV\u9178
I1788
sV\u587e
I1789
sV\u8205
I1790
sV\u6988
I1791
sV\u778c
I1792
sV\u7b94
I1793
sV\u6019
I1794
sV\u6e1d
I1795
sV\u59a8
I1796
sV\u852b
I1797
sV\u832f
I1798
sV\u5e3d
I1799
sV\u78be
I1800
sV\u6f47
I1801
sV\u89c8
I1802
sV\u754b
I1803
sV\u7953
I1804
sV\u5f67
I1805
sV\u94f6
I1806
sV\u51f8
I1807
sV\u8283
I1808
sV\u6f06
I1809
sV\u968b
I1810
sV\u730e
I1811
sV\u8c1c
I1812
sV\u5522
I1813
sV\u5f26
I1814
sV\u592a
I1815
sV\u642c
I1816
sV\u8fb1
I1817
sV\u7238
I1818
sV\u75cd
I1819
sV\u5854
I1820
sV\u6756
I1821
sV\u88df
I1822
sV\u846c
I1823
sV\u60ef
I1824
sV\u8e70
I1825
sV\u74f7
I1826
sV\u7efb
I1827
sV\u9c7c
I1828
sV\u6084
I1829
sV\u500f
I1830
sV\u5a13
I1831
sV\u63ae
I1832
sV\u6db2
I1833
sV\u5339
I1834
sV\u71ba
I1835
sV\u5d3d
I1836
sV\u86c0
I1837
sV\u80c4
I1838
sV\u6c47
I1839
sV\u94cc
I1840
sV\u704f
I1841
sV\u53ce
I1842
sV\u9ed0
I1843
sV\u62d8
I1844
sV\u8d5d
I1845
sV\u9761
I1846
sV\u9165
I1847
sV\u70e4
I1848
sV\u4ef0
I1849
sV\u97f6
I1850
sV\u6402
I1851
sV\u978b
I1852
sV\u680a
I1853
sV\u5e91
I1854
sV\u6597
I1855
sV\u5e26
I1856
sV\u582a
I1857
sV\u6934
I1858
sV\u55b7
I1859
sV\u9cbd
I1860
sV\u60c5
I1861
sV\u7ed1
I1862
sV\u78d5
I1863
sV\u5954
I1864
sV\u6656
I1865
sV\u8fdb
I1866
sV\u56e1
I1867
sV\u7462
I1868
sV\u5ae9
I1869
sV\u8f70
I1870
sV\u5676
I1871
sV\u7ffb
I1872
sV\u8005
I1873
sV\u809a
I1874
sV\u57a0
I1875
sV\u94a2
I1876
sV\u51a4
I1877
sV\u9ea6
I1878
sV\u812f
I1879
sV\u5239
I1880
sV\u9f3b
I1881
sV\u5c3d
I1882
sV\u87c0
I1883
sV\u6d47
I1884
sV\u4ec6
I1885
sV\u8bc8
I1886
sV\u4f5b
I1887
sV\u9661
I1888
sV\u9065
I1889
sV\u646d
I1890
sV\u96f6
I1891
sV\u7279
I1892
sV\u53f8
I1893
sV\u7c7d
I1894
sV\u670a
I1895
sV\u9493
I1896
sV\u6a97
I1897
sV\u8c18
I1898
sV\u4f1a
I1899
sV\u821c
I1900
sV\u8bad
I1901
sV\u6634
I1902
sV\u7c38
I1903
sV\u50bb
I1904
sV\u69c1
I1905
sV\u8146
I1906
sV\u5654
I1907
sV\u80db
I1908
sV\u86df
I1909
sV\u655e
I1910
sV\u7166
I1911
sV\u5976
I1912
sV\u557e
I1913
sV\u5e0f
I1914
sV\u5413
I1915
sV\u6d19
I1916
sV\u631d
I1917
sV\u7f25
I1918
sV\u7529
I1919
sV\u54a8
I1920
sV\u8e2f
I1921
sV\u6dae
I1922
sV\u903b
I1923
sV\u963f
I1924
sV\u75be
I1925
sV\u6247
I1926
sV\u9acc
I1927
sV\u62dc
I1928
sV\u5c63
I1929
sV\u5267
I1930
sV\u83f2
I1931
sV\u6775
I1932
sV\u95fe
I1933
sV\u6006
I1934
sV\u998b
I1935
sV\u660a
I1936
sV\u4e1a
I1937
sV\u831c
I1938
sV\u5026
I1939
sV\u9528
I1940
sV\u4faf
I1941
sV\u80b1
I1942
sV\u86b5
I1943
sV\u6734
I1944
sV\u9cb9
I1945
sV\u51bb
I1946
sV\u8046
I1947
sV\u8bd7
I1948
sV\u645e
I1949
sV\u54e9
I1950
sV\u8b6c
I1951
sV\u6fef
I1952
sV\u8170
I1953
sV\u8774
I1954
sV\u7bf7
I1955
sV\u71fb
I1956
sV\u5e7a
I1957
sV\u77ff
I1958
sV\u6980
I1959
sV\u6f84
I1960
sV\u5f0f
I1961
sV\u9011
I1962
sV\u8896
I1963
sV\u6c19
I1964
sV\u621d
I1965
sV\u9aa2
I1966
sV\u90a6
I1967
sV\u892b
I1968
sV\u6cae
I1969
sV\u5c39
I1970
sV\u7eba
I1971
sV\u523d
I1972
sV\u6d43
I1973
sV\u8fc4
I1974
sV\u52d2
I1975
sV\u6dd8
I1976
sV\u5367
I1977
sV\u75e8
I1978
sV\u53fc
I1979
sV\u94fe
I1980
sV\u8087
I1981
sV\u9a8b
I1982
sV\u598d
I1983
sV\u7f0e
I1984
sV\u6897
I1985
sV\u629b
I1986
sV\u7ea3
I1987
sV\u83b1
I1988
sV\u54bf
I1989
sV\u6bc1
I1990
sV\u6dc5
I1991
sV\u8346
I1992
sV\u67c9
I1993
sV\u854a
I1994
sV\u79cd
I1995
sV\u584c
I1996
sV\u73d1
I1997
sV\u5250
I1998
sV\u9152
I1999
sV\u75d5
I2000
sV\u82db
I2001
sV\u6d5a
I2002
sV\u84df
I2003
sV\u675e
I2004
sV\u5be1
I2005
sV\u7962
I2006
sV\u5de5
I2007
sV\u756a
I2008
sV\u886c
I2009
sV\u6cef
I2010
sV\u8270
I2011
sV\u66f3
I2012
sV\u78f7
I2013
sV\u6a80
I2014
sV\u4e03
I2015
sV\u8709
I2016
sV\u990d
I2017
sV\u788c
I2018
sV\u5c0f
I2019
sV\u9515
I2020
sV\u4e98
I2021
sV\u7729
I2022
sV\u5f39
I2023
sV\u77be
I2024
sV\u6e43
I2025
sV\u92d0
I2026
sV\u60dc
I2027
sV\u7ae0
I2028
sV\u9769
I2029
sV\u6371
I2030
sV\u7f79
I2031
sV\u5ef8
I2032
sV\u717d
I2033
sV\u8f83
I2034
sV\u6206
I2035
sV\u5495
I2036
sV\u659f
I2037
sV\u7fa3
I2038
sV\u88ad
I2039
sV\u82b1
I2040
sV\u7f38
I2041
sV\u53bb
I2042
sV\u6cc5
I2043
sV\u9e4e
I2044
sV\u9052
I2045
sV\u4ed9
I2046
sV\u665e
I2047
sV\u5ae1
I2048
sV\u5ce5
I2049
sV\u7266
I2050
sV\u6beb
I2051
sV\u6def
I2052
sV\u67f3
I2053
sV\u8574
I2054
sV\u5a76
I2055
sV\u75ff
I2056
sV\u8c05
I2057
sV\u601d
I2058
sV\u5ba0
I2059
sV\u98a2
I2060
sV\u7629
I2061
sV\u8d2f
I2062
sV\u60b2
I2063
sV\u8bc0
I2064
sV\u8dc4
I2065
sV\u7b4b
I2066
sV\u8e59
I2067
sV\u9669
I2068
sV\u5ff8
I2069
sV\u96fe
I2070
sV\u6f02
I2071
sV\u9a8f
I2072
sV\u5591
I2073
sV\u9093
I2074
sV\u5395
I2075
sV\u78a3
I2076
sV\u5f22
I2077
sV\u532a
I2078
sV\u6234
I2079
sV\u5eb7
I2080
sV\u7838
I2081
sV\u54bb
I2082
sV\u52bf
I2083
sV\u6bc5
I2084
sV\u5e4c
I2085
sV\u5450
I2086
sV\u9752
I2087
sV\u5254
I2088
sV\u82df
I2089
sV\u5de1
I2090
sV\u7f62
I2091
sV\u5be5
I2092
sV\u6ceb
I2093
sV\u8e6c
I2094
sV\u60f3
I2095
sV\u7ef7
I2096
sV\u5b7a
I2097
sV\u6a84
I2098
sV\u8109
I2099
sV\u9511
I2100
sV\u7490
I2101
sV\u671d
I2102
sV\u50a8
I2103
sV\u8033
I2104
sV\u5939
I2105
sV\u6843
I2106
sV\u94d0
I2107
sV\u68d8
I2108
sV\u66dc
I2109
sV\u7ce0
I2110
sV\u9169
I2111
sV\u70e8
I2112
sV\u6f6d
I2113
sV\u4eec
I2114
sV\u7979
I2115
sV\u777d
I2116
sV\u8983
I2117
sV\u620a
I2118
sV\u659b
I2119
sV\u871c
I2120
sV\u77a7
I2121
sV\u5426
I2122
sV\u5fb7
I2123
sV\u55bb
I2124
sV\u96bd
I2125
sV\u773c
I2126
sV\u53bf
I2127
sV\u8e42
I2128
sV\u8446
I2129
sV\u7ecd
I2130
sV\u5550
I2131
sV\u83df
I2132
sV\u5ce1
I2133
sV\u97e7
I2134
sV\u6deb
I2135
sV\u8f6c
I2136
sV\u6bef
I2137
sV\u5a7a
I2138
sV\u977c
I2139
sV\u8c01
I2140
sV\u6b84
I2141
sV\u7f8c
I2142
sV\u661d
I2143
sV\u5ba4
I2144
sV\u94a6
I2145
sV\u8d2b
I2146
sV\u4e2d
I2147
sV\u9f37
I2148
sV\u7cb6
I2149
sV\u953b
I2150
sV\u4ec2
I2151
sV\u8bc4
I2152
sV\u7b4f
I2153
sV\u4f57
I2154
sV\u8859
I2155
sV\u67dc
I2156
sV\u4fec
I2157
sV\u59f8
I2158
sV\u767d
I2159
sV\u57fc
I2160
sV\u9e8b
I2161
sV\u988f
I2162
sV\u5195
I2163
sV\u841c
I2164
sV\u609f
I2165
sV\u9e20
I2166
sV\u7aa3
I2167
sV\u74a7
I2168
sV\u4eab
I2169
sV\u5cb7
I2170
sV\u743c
I2171
sV\u8d42
I2172
sV\u63c9
I2173
sV\u814a
I2174
sV\u5c4c
I2175
sV\u9552
I2176
sV\u71d5
I2177
sV\u6f56
I2178
sV\u86db
I2179
sV\u695a
I2180
sV\u635e
I2181
sV\u5fe1
I2182
sV\u59e5
I2183
sV\u94e7
I2184
sV\u7766
I2185
sV\u53e9
I2186
sV\u62f3
I2187
sV\u9a78
I2188
sV\u6e80
I2189
sV\u8309
I2190
sV\u7094
I2191
sV\u8f96
I2192
sV\u839e
I2193
sV\u7329
I2194
sV\u52a8
I2195
sV\u91aa
I2196
sV\u963b
I2197
sV\u79ba
I2198
sV\u6447
I2199
sV\u9ccc
I2200
sV\u55d2
I2201
sV\u7ee0
I2202
sV\u9965
I2203
sV\u9369
I2204
sV\u8bee
I2205
sV\u6175
I2206
sV\u7b79
I2207
sV\u54fc
I2208
sV\u8587
I2209
sV\u6606
I2210
sV\u9f8b
I2211
sV\u998f
I2212
sV\u7a0e
I2213
sV\u4e16
I2214
sV\u9f20
I2215
sV\u7ba3
I2216
sV\u502a
I2217
sV\u86b1
I2218
sV\u94bd
I2219
sV\u6ec1
I2220
sV\u62c9
I2221
sV\u804a
I2222
sV\u7ccd
I2223
sV\u5d4c
I2224
sV\u76d1
I2225
sV\u5750
I2226
sV\u5154
I2227
sV\u8dd7
I2228
sV\u6e56
I2229
sV\u625e
I2230
sV\u8770
I2231
sV\u8174
I2232
sV\u5e76
I2233
sV\u6984
I2234
sV\u6388
I2235
sV\u5f0b
I2236
sV\u590f
I2237
sV\u9611
I2238
sV\u7194
I2239
sV\u9ca2
I2240
sV\u7825
I2241
sV\u59a4
I2242
sV\u53a8
I2243
sV\u90aa
I2244
sV\u7eb6
I2245
sV\u6b43
I2246
sV\u89c4
I2247
sV\u83c8
I2248
sV\u54d2
I2249
sV\u7fe0
I2250
sV\u5b63
I2251
sV\u79e4
I2252
sV\u5567
I2253
sV\u6075
I2254
sV\u7a79
I2255
sV\u5bf8
I2256
sV\u9a87
I2257
sV\u808b
I2258
sV\u789b
I2259
sV\u8c28
I2260
sV\u4f2a
I2261
sV\u722c
I2262
sV\u56af
I2263
sV\u7830
I2264
sV\u5cb3
I2265
sV\u8bbd
I2266
sV\u4ebf
I2267
sV\u5c48
I2268
sV\u63cd
I2269
sV\u4e54
I2270
sV\u775a
I2271
sV\u5bdd
I2272
sV\u6362
I2273
sV\u6966
I2274
sV\u70eb
I2275
sV\u76ef
I2276
sV\u556e
I2277
sV\u62f7
I2278
sV\u7080
I2279
sV\u5403
I2280
sV\u7684
I2281
sV\u5a07
I2282
sV\u7519
I2283
sV\u75ae
I2284
sV\u5931
I2285
sV\u8237
I2286
sV\u53c2
I2287
sV\u96c4
I2288
sV\u59c6
I2289
sV\u604b
I2290
sV\u664f
I2291
sV\u7adc
I2292
sV\u60e0
I2293
sV\u6ce8
I2294
sV\u736d
I2295
sV\u95ee
I2296
sV\u58f0
I2297
sV\u5685
I2298
sV\u4e95
I2299
sV\u799b
I2300
sV\u561a
I2301
sV\u7f9f
I2302
sV\u8d28
I2303
sV\u4e2a
I2304
sV\u732c
I2305
sV\u7f34
I2306
sV\u6538
I2307
sV\u4fbf
I2308
sV\u70c1
I2309
sV\u5140
I2310
sV\u76c5
I2311
sV\u9e4a
I2312
sV\u62cd
I2313
sV\u6ed5
I2314
sV\u8be7
I2315
sV\u6866
I2316
sV\u6e6a
I2317
sV\u9970
I2318
sV\u9001
I2319
sV\u9605
I2320
sV\u7784
I2321
sV\u820d
I2322
sV\u638c
I2323
sV\u5598
I2324
sV\u5b9c
I2325
sV\u6021
I2326
sV\u6625
I2327
sV\u6c29
I2328
sV\u6cbe
I2329
sV\u5eca
I2330
sV\u83cc
I2331
sV\u674f
I2332
sV\u89d0
I2333
sV\u6d53
I2334
sV\u8fd4
I2335
sV\u5357
I2336
sV\u75d8
I2337
sV\u53ec
I2338
sV\u94ee
I2339
sV\u80f6
I2340
sV\u6479
I2341
sV\u9887
I2342
sV\u7b06
I2343
sV\u5f89
I2344
sV\u828b
I2345
sV\u7d0a
I2346
sV\u6912
I2347
sV\u5316
I2348
sV\u7c9f
I2349
sV\u8424
I2350
sV\u68a7
I2351
sV\u52ab
I2352
sV\u702c
I2353
sV\u54af
I2354
sV\u683c
I2355
sV\u75c5
I2356
sV\u874e
I2357
sV\u6bd1
I2358
sV\u90d7
I2359
sV\u57d9
I2360
sV\u755a
I2361
sV\u59dd
I2362
sV\u9cdf
I2363
sV\u6162
I2364
sV\u6b66
I2365
sV\u4fe9
I2366
sV\u6d6a
I2367
sV\u74ef
I2368
sV\u9a70
I2369
sV\u7ef3
I2370
sV\u4f7e
I2371
sV\u7280
I2372
sV\u9505
I2373
sV\u5807
I2374
sV\u810d
I2375
sV\u608c
I2376
sV\u6a90
I2377
sV\u4e13
I2378
sV\u7719
I2379
sV\u6321
I2380
sV\u6525
I2381
sV\u8ba6
I2382
sV\u6f29
I2383
sV\u4ea8
I2384
sV\u9e33
I2385
sV\u8037
I2386
sV\u94c4
I2387
sV\u5bc6
I2388
sV\u624b
I2389
sV\u80cc
I2390
sV\u9759
I2391
sV\u76d8
I2392
sV\u8361
I2393
sV\u64e4
I2394
sV\u8f69
I2395
sV\u6ee8
I2396
sV\u7b71
I2397
sV\u5af0
I2398
sV\u858f
I2399
sV\u660e
I2400
sV\u8f93
I2401
sV\u67a3
I2402
sV\u69a7
I2403
sV\u5fb3
I2404
sV\u9cb5
I2405
sV\u9042
I2406
sV\u5544
I2407
sV\u7ec9
I2408
sV\u864e
I2409
sV\u6cd5
I2410
sV\u745a
I2411
sV\u6062
I2412
sV\u6c6a
I2413
sV\u916c
I2414
sV\u7ff3
I2415
sV\u4e7e
I2416
sV\u5703
I2417
sV\u5907
I2418
sV\u800d
I2419
sV\u8c15
I2420
sV\u6d94
I2421
sV\u7619
I2422
sV\u949a
I2423
sV\u781d
I2424
sV\u6221
I2425
sV\u80a2
I2426
sV\u6425
I2427
sV\u6e29
I2428
sV\u4fa8
I2429
sV\u502d
I2430
sV\u952f
I2431
sV\u76ae
I2432
sV\u5a31
I2433
sV\u78b2
I2434
sV\u64ba
I2435
sV\u8d3f
I2436
sV\u93c0
I2437
sV\u7947
I2438
sV\u634b
I2439
sV\u654f
I2440
sV\u63e0
I2441
sV\u8e69
I2442
sV\u706d
I2443
sV\u5bf0
I2444
sV\u5df4
I2445
sV\u5581
I2446
sV\u9083
I2447
sV\u5385
I2448
sV\u9e87
I2449
sV\u848b
I2450
sV\u610e
I2451
sV\u7a9f
I2452
sV\u60a3
I2453
sV\u6ea7
I2454
sV\u54ab
I2455
sV\u97ad
I2456
sV\u8fbd
I2457
sV\u6e3c
I2458
sV\u5440
I2459
sV\u73c5
I2460
sV\u79c9
I2461
sV\u6dd1
I2462
sV\u6bd5
I2463
sV\u5fdd
I2464
sV\u795e
I2465
sV\u6d66
I2466
sV\u6b6a
I2467
sV\u516e
I2468
sV\u9a74
I2469
sV\u6cfb
I2470
sV\u8e7c
I2471
sV\u9501
I2472
sV\u7480
I2473
sV\u7284
I2474
sV\u870d
I2475
sV\u668c
I2476
sV\u6c90
I2477
sV\u7119
I2478
sV\u7f1d
I2479
sV\u5e9c
I2480
sV\u6325
I2481
sV\u8baa
I2482
sV\u572d
I2483
sV\u7fb2
I2484
sV\u63ba
I2485
sV\u4f3d
I2486
sV\u94c0
I2487
sV\u57c2
I2488
sV\u6853
I2489
sV\u5657
I2490
sV\u70d8
I2491
sV\u7edc
I2492
sV\u8365
I2493
sV\u5cf0
I2494
sV\u7b75
I2495
sV\u4efc
I2496
sV\u5481
I2497
sV\u9f87
I2498
sV\u5889
I2499
sV\u600e
I2500
sV\u5416
I2501
sV\u521a
I2502
sV\u6fa7
I2503
sV\u772c
I2504
sV\u9cb1
I2505
sV\u9642
I2506
sV\u78c9
I2507
sV\u5948
I2508
sV\u8e52
I2509
sV\u81e3
I2510
sV\u6662
I2511
sV\u75eb
I2512
sV\u5e72
I2513
sV\u6dfb
I2514
sV\u8f7c
I2515
sV\u7384
I2516
sV\u8c11
I2517
sV\u9496
I2518
sV\u5f9c
I2519
sV\u989e
I2520
sV\u6421
I2521
sV\u6829
I2522
sV\u562d
I2523
sV\u70ae
I2524
sV\u5c31
I2525
sV\u7eb2
I2526
sV\u8737
I2527
sV\u8d3b
I2528
sV\u62ba
I2529
sV\u4e3d
I2530
sV\u93c4
I2531
sV\u634f
I2532
sV\u5757
I2533
sV\u5b5f
I2534
sV\u8461
I2535
sV\u65e0
I2536
sV\u8869
I2537
sV\u6079
I2538
sV\u88fe
I2539
sV\u5185
I2540
sV\u9c87
I2541
sV\u7f06
I2542
sV\u5b89
I2543
sV\u868b
I2544
sV\u630e
I2545
sV\u4f91
I2546
sV\u8a93
I2547
sV\u6d12
I2548
sV\u7e9b
I2549
sV\u789f
I2550
sV\u6ca7
I2551
sV\u4f26
I2552
sV\u742c
I2553
sV\u5ab3
I2554
sV\u7834
I2555
sV\u83b9
I2556
sV\u9542
I2557
sV\u6fd1
I2558
sV\u4e50
I2559
sV\u53d9
I2560
sV\u9edb
I2561
sV\u5ddd
I2562
sV\u98df
I2563
sV\u82e3
I2564
sV\u6562
I2565
sV\u6f66
I2566
sV\u70ef
I2567
sV\u9e70
I2568
sV\u9701
I2569
sV\u5203
I2570
sV\u7a88
I2571
sV\u6e90
I2572
sV\u919a
I2573
sV\u7d1d
I2574
sV\u902f
I2575
sV\u73ae
I2576
sV\u5f31
I2577
sV\u67b6
I2578
sV\u96c0
I2579
sV\u90c4
I2580
sV\u5fc6
I2581
sV\u9ac8
I2582
sV\u664b
I2583
sV\u59ca
I2584
sV\u88d4
I2585
sV\u5457
I2586
sV\u9359
I2587
sV\u7cdc
I2588
sV\u8165
I2589
sV\u8bfe
I2590
sV\u5085
I2591
sV\u818f
I2592
sV\u620e
I2593
sV\u4e91
I2594
sV\u7597
I2595
sV\u501a
I2596
sV\u63a3
I2597
sV\u6da7
I2598
sV\u57ab
I2599
sV\u752c
I2600
sV\u51af
I2601
sV\u7f30
I2602
sV\u5bb3
I2603
sV\u7934
I2604
sV\u82b9
I2605
sV\u6d3c
I2606
sV\u5740
I2607
sV\u5144
I2608
sV\u64cd
I2609
sV\u6ed1
I2610
sV\u4f50
I2611
sV\u68d5
I2612
sV\u7656
I2613
sV\u77eb
I2614
sV\u956c
I2615
sV\u9974
I2616
sV\u65f7
I2617
sV\u8378
I2618
sV\u69ff
I2619
sV\u9601
I2620
sV\u9005
I2621
sV\u7184
I2622
sV\u5d07
I2623
sV\u840d
I2624
sV\u658c
I2625
sV\u8815
I2626
sV\u6994
I2627
sV\u5398
I2628
sV\u9a9e
I2629
sV\u6025
I2630
sV\u542d
I2631
sV\u912f
I2632
sV\u7cb2
I2633
sV\u5835
I2634
sV\u8537
I2635
sV\u54c2
I2636
sV\u58ca
I2637
sV\u8fd0
I2638
sV\u67e0
I2639
sV\u6279
I2640
sV\u80fa
I2641
sV\u6c7d
I2642
sV\u5981
I2643
sV\u5f85
I2644
sV\u5589
I2645
sV\u888b
I2646
sV\u8e8f
I2647
sV\u6d0e
I2648
sV\u7a97
I2649
sV\u5916
I2650
sV\u6ca3
I2651
sV\u8428
I2652
sV\u54b3
I2653
sV\u7634
I2654
sV\u6c38
I2655
sV\u83bd
I2656
sV\u79c1
I2657
sV\u9b42
I2658
sV\u7fc5
I2659
sV\u5e44
I2660
sV\u75c9
I2661
sV\u5448
I2662
sV\u6bcd
I2663
sV\u8d4e
I2664
sV\u61d1
I2665
sV\u8352
I2666
sV\u7956
I2667
sV\u7f5a
I2668
sV\u6b62
I2669
sV\u9a6c
I2670
sV\u7eef
I2671
sV\u4f7a
I2672
sV\u66ff
I2673
sV\u5207
I2674
sV\u9509
I2675
sV\u8111
I2676
sV\u8715
I2677
sV\u9996
I2678
sV\u5c98
I2679
sV\u9f9a
I2680
sV\u731d
I2681
sV\u8ba2
I2682
sV\u4ea4
I2683
sV\u81a6
I2684
sV\u9e2f
I2685
sV\u7dae
I2686
sV\u73b2
I2687
sV\u803b
I2688
sV\u5bc2
I2689
sV\u9ec4
I2690
sV\u7247
I2691
sV\u51c6
I2692
sV\u94c8
I2693
sV\u86d4
I2694
sV\u68e0
I2695
sV\u6ee4
I2696
sV\u56f4
I2697
sV\u5881
I2698
sV\u8f8f
I2699
sV\u6212
I2700
sV\u7b97
I2701
sV\u5e1a
I2702
sV\u779f
I2703
sV\u541e
I2704
sV\u6da3
I2705
sV\u63a7
I2706
sV\u59ab
I2707
sV\u7b2c
I2708
sV\u90b1
I2709
sV\u7130
I2710
sV\u55b3
I2711
sV\u6d38
I2712
sV\u82bd
I2713
sV\u78c1
I2714
sV\u7ec5
I2715
sV\u60d1
I2716
sV\u5cd9
I2717
sV\u745e
I2718
sV\u4ee5
I2719
sV\u9170
I2720
sV\u5272
I2721
sV\u9774
I2722
sV\u837c
I2723
sV\u67ff
I2724
sV\u7980
I2725
sV\u4f0f
I2726
sV\u9896
I2727
sV\u949e
I2728
sV\u6821
I2729
sV\u6e25
I2730
sV\u86aa
I2731
sV\u5a2d
I2732
sV\u9f2f
I2733
sV\u7cae
I2734
sV\u68b6
I2735
sV\u6eba
I2736
sV\u873f
I2737
sV\u5ac2
I2738
sV\u56ca
I2739
sV\u8bcc
I2740
sV\u5b57
I2741
sV\u575f
I2742
sV\u8861
I2743
sV\u8469
I2744
sV\u65e8
I2745
sV\u51f0
I2746
sV\u6c79
I2747
sV\u5b81
I2748
sV\u5d85
I2749
sV\u8693
I2750
sV\u7897
I2751
sV\u749f
I2752
sV\u8c24
I2753
sV\u782c
I2754
sV\u7230
I2755
sV\u7434
I2756
sV\u8fb9
I2757
sV\u6e38
I2758
sV\u603c
I2759
sV\u5a40
I2760
sV\u954a
I2761
sV\u7b56
I2762
sV\u5fd9
I2763
sV\u51dd
I2764
sV\u94df
I2765
sV\u80e7
I2766
sV\u7cef
I2767
sV\u5e03
I2768
sV\u9709
I2769
sV\u7688
I2770
sV\u8311
I2771
sV\u7f19
I2772
sV\u6b21
I2773
sV\u6d25
I2774
sV\u85aa
I2775
sV\u592d
I2776
sV\u9633
I2777
sV\u9cc4
I2778
sV\u6c4f
I2779
sV\u4fce
I2780
sV\u6653
I2781
sV\u7ed8
I2782
sV\u915d
I2783
sV\u70dc
I2784
sV\u796d
I2785
sV\u58ec
I2786
sV\u8bf6
I2787
sV\u8dfa
I2788
sV\u87fe
I2789
sV\u9f83
I2790
sV\u7802
I2791
sV\u9187
I2792
sV\u7206
I2793
sV\u740a
I2794
sV\u6e0e
I2795
sV\u6012
I2796
sV\u739b
I2797
sV\u5c1a
I2798
sV\u759f
I2799
sV\u561e
I2800
sV\u8d24
I2801
sV\u61a7
I2802
sV\u5bab
I2803
sV\u94b5
I2804
sV\u80bd
I2805
sV\u5b40
I2806
sV\u7cc5
I2807
sV\u68cd
I2808
sV\u8052
I2809
sV\u765e
I2810
sV\u6862
I2811
sV\u81e7
I2812
sV\u6266
I2813
sV\u996c
I2814
sV\u77f3
I2815
sV\u5072
I2816
sV\u8f78
I2817
sV\u817c
I2818
sV\u65ff
I2819
sV\u7b80
I2820
sV\u5f03
I2821
sV\u9609
I2822
sV\u6390
I2823
sV\u5f98
I2824
sV\u519c
I2825
sV\u6a21
I2826
sV\u82a6
I2827
sV\u7eae
I2828
sV\u5435
I2829
sV\u4e39
I2830
sV\u7147
I2831
sV\u6d4f
I2832
sV\u4ece
I2833
sV\u6753
I2834
sV\u5957
I2835
sV\u7fd8
I2836
sV\u4f63
I2837
sV\u6de4
I2838
sV\u59ec
I2839
sV\u53f0
I2840
sV\u4ff8
I2841
sV\u86fe
I2842
sV\u7f02
I2843
sV\u5b85
I2844
sV\u5189
I2845
sV\u4f8d
I2846
sV\u690e
I2847
sV\u8093
I2848
sV\u5d16
I2849
sV\u961c
I2850
sV\u729f
I2851
sV\u4f22
I2852
sV\u66a7
I2853
sV\u5cab
I2854
sV\u7430
I2855
sV\u6838
I2856
sV\u87bd
I2857
sV\u663c
I2858
sV\u5c40
I2859
sV\u5048
I2860
sV\u4e4c
I2861
sV\u94db
I2862
sV\u7b5a
I2863
sV\u57dd
I2864
sV\u715e
I2865
sV\u6f62
I2866
sV\u6566
I2867
sV\u9e6c
I2868
sV\u7aef
I2869
sV\u9274
I2870
sV\u62ff
I2871
sV\u5803
I2872
sV\u7a84
I2873
sV\u8511
I2874
sV\u83aa
I2875
sV\u5f2d
I2876
sV\u5531
I2877
sV\u61be
I2878
sV\u9cc0
I2879
sV\u53ca
I2880
sV\u82d4
I2881
sV\u545b
I2882
sV\u8d61
I2883
sV\u6ce0
I2884
sV\u8169
I2885
sV\u60e8
I2886
sV\u8df6
I2887
sV\u6979
I2888
sV\u8bfa
I2889
sV\u81fe
I2890
sV\u5c81
I2891
sV\u7406
I2892
sV\u8d8b
I2893
sV\u680e
I2894
sV\u5c16
I2895
sV\u971c
I2896
sV\u739f
I2897
sV\u501e
I2898
sV\u8d20
I2899
sV\u4e22
I2900
sV\u7f2c
I2901
sV\u94b1
I2902
sV\u7530
I2903
sV\u51b3
I2904
sV\u7334
I2905
sV\u7cc1
I2906
sV\u9e42
I2907
sV\u5148
I2908
sV\u705e
I2909
sV\u89e3
I2910
sV\u626a
I2911
sV\u9570
I2912
sV\u65fb
I2913
sV\u877c
I2914
sV\u63ff
I2915
sV\u9009
I2916
sV\u6590
I2917
sV\u9a9a
I2918
sV\u6c21
I2919
sV\u6029
I2920
sV\u82aa
I2921
sV\u5e2d
I2922
sV\u5431
I2923
sV\u76b2
I2924
sV\u853b
I2925
sV\u7747
I2926
sV\u54c6
I2927
sV\u6d4b
I2928
sV\u85d0
I2929
sV\u83d4
I2930
sV\u5f57
I2931
sV\u79d8
I2932
sV\u77dc
I2933
sV\u535f
I2934
sV\u8c61
I2935
sV\u8069
I2936
sV\u7471
I2937
sV\u7275
I2938
sV\u5f81
I2939
sVBG
p3
I2940
sV\u9487
I2941
sV\u5389
I2942
sV\u710a
I2943
sV\u6512
I2944
sV\u7c97
I2945
sV\u591a
I2946
sV\u8228
I2947
sV\u52b3
I2948
sV\u8bb9
I2949
sV\u7fc1
I2950
sV\u73c9
I2951
sV\u914a
I2952
sV\u67d1
I2953
sV\u9cd7
I2954
sV\u795a
I2955
sV\u55dd
I2956
sV\u4fe1
I2957
sV\u7eeb
I2958
sV\u72f3
I2959
sV\u5572
I2960
sV\u9074
I2961
sV\u6cf7
I2962
sV\u4f76
I2963
sV\u5a03
I2964
sV\u4e0b
I2965
sV\u6c8c
I2966
sV\u6690
I2967
sV\u6094
I2968
sV\u7b19
I2969
sV\u9e2b
I2970
sV\u5d2d
I2971
sV\u75b2
I2972
sV\u8c37
I2973
sV\u6fb6
I2974
sV\u803f
I2975
sV\u86d0
I2976
sV\u6253
I2977
sV\u955d
I2978
sV\u74dc
I2979
sV\u62e8
I2980
sV\u56f0
I2981
sV\u95f2
I2982
sV\u6b79
I2983
sV\u5885
I2984
sV\u7606
I2985
sV\u8f8b
I2986
sV\u8393
I2987
sV\u5e16
I2988
sV\u951c
I2989
sV\u719f
I2990
sV\u65a7
I2991
sV\u8328
I2992
sV\u9cad
I2993
sV\u59af
I2994
sV\u90b5
I2995
sV\u6b38
I2996
sV\u84bd
I2997
sV\u78c5
I2998
sV\u5944
I2999
sV\u9646
I3000
sV\u5348
I3001
sV\u60d5
I3002
sV\u54dd
I3003
sV\u4ee1
I3004
sV\u8be3
I3005
sV\u6666
I3006
sV\u606a
I3007
sV\u79ef
I3008
sV\u5472
I3009
sV\u6df7
I3010
sV\u67fb
I3011
sV\u61ff
I3012
sV\u7984
I3013
sV\u5507
I3014
sV\u8c0d
I3015
sV\u6d8c
I3016
sV\u8611
I3017
sV\u6790
I3018
sV\u8015
I3019
sV\u6194
I3020
sV\u5b98
I3021
sV\u989a
I3022
sV\u559c
I3023
sV\u6e21
I3024
sV\u4fa0
I3025
sV\u80aa
I3026
sV\u5631
I3027
sV\u8d37
I3028
sV\u6eb6
I3029
sV\u873b
I3030
sV\u6f4b
I3031
sV\u8dcc
I3032
sV\u575b
I3033
sV\u6fe0
I3034
sV\u8865
I3035
sV\u94f2
I3036
sV\u7075
I3037
sV\u6a79
I3038
sV\u82fe
I3039
sV\u8302
I3040
sV\u5e14
I3041
sV\u8297
I3042
sV\u94a3
I3043
sV\u7624
I3044
sV\u9aa7
I3045
sV\u822c
I3046
sV\u75b9
I3047
sV\u573a
I3048
sV\u6342
I3049
sV\u7b52
I3050
sV\u62d7
I3051
sV\u8d5e
I3052
sV\u74e3
I3053
sV\u5664
I3054
sV\u80eb
I3055
sV\u626c
I3056
sV\u4ff5
I3057
sV\u6e74
I3058
sV\u6101
I3059
sV\u9890
I3060
sV\u7f15
I3061
sV\u679a
I3062
sV\u6d9e
I3063
sV\u73a2
I3064
sV\u662f
I3065
sV\u85ae
I3066
sV\u8bb2
I3067
sV\u7237
I3068
sV\u54b8
I3069
sV\u783b
I3070
sV\u534d
I3071
sV\u5951
I3072
sV\u78d0
I3073
sV\u5f55
I3074
sV\u7ed4
I3075
sV\u6559
I3076
sV\u7765
I3077
sV\u5fea
I3078
sV\u836d
I3079
sV\u65ee
I3080
sV\u5e7f
I3081
sV\u8202
I3082
sV\u6b87
I3083
sV\u8e0a
I3084
sV\u6518
I3085
sV\u8f9f
I3086
sV\u5ca9
I3087
sV\u832c
I3088
sV\u9b3c
I3089
sV\u5c3e
I3090
sV\u80c1
I3091
sV\u6846
I3092
sV\u51cb
I3093
sV\u98d1
I3094
sV\u69db
I3095
sV\u865a
I3096
sV\u75e3
I3097
sV\u5764
I3098
sV\u5d68
I3099
sV\u8df3
I3100
sV\u4ef5
I3101
sV\u7578
I3102
sV\u6001
I3103
sV\u8180
I3104
sV\u548e
I3105
sV\u9990
I3106
sV\u5a92
I3107
sV\u6096
I3108
sV\u4f1f
I3109
sV\u9021
I3110
sV\u612b
I3111
sV\u7eaa
I3112
sV\u672f
I3113
sV\u7337
I3114
sV\u8543
I3115
sV\u67c4
I3116
sV\u914b
I3117
sV\u524d
I3118
sV\u5851
I3119
sV\u5e55
I3120
sV\u7fd4
I3121
sV\u5eea
I3122
sV\u5377
I3123
sV\u9a7d
I3124
sV\u8102
I3125
sV\u4e08
I3126
sV\u500c
I3127
sV\u970e
I3128
sV\u5c14
I3129
sV\u98a7
I3130
sV\u6db5
I3131
sV\u8c34
I3132
sV\u79bd
I3133
sV\u83c1
I3134
sV\u6b46
I3135
sV\u52cb
I3136
sV\u6d4a
I3137
sV\u91cd
I3138
sV\u54cf
I3139
sV\u5ed3
I3140
sV\u9162
I3141
sV\u5464
I3142
sV\u82eb
I3143
sV\u606c
I3144
sV\u6c74
I3145
sV\u57f9
I3146
sV\u7678
I3147
sV\u9afb
I3148
sV\u787c
I3149
sV\u6301
I3150
sV\u6f09
I3151
sV\u7b11
I3152
sV\u9a90
I3153
sV\u5992
I3154
sV\u9c94
I3155
sV\u6396
I3156
sV\u5623
I3157
sV\u9525
I3158
sV\u9f29
I3159
sV\u93b6
I3160
sV\u7a3b
I3161
sV\u7c3f
I3162
sV\u6ec8
I3163
sV\u514d
I3164
sV\u5b51
I3165
sV\u4fde
I3166
sV\u7565
I3167
sV\u94e4
I3168
sV\u7f69
I3169
sV\u816d
I3170
sV\u4e73
I3171
sV\u69f2
I3172
sV\u8d75
I3173
sV\u5077
I3174
sV\u997d
I3175
sV\u5c7f
I3176
sV\u738b
I3177
sV\u8c0a
I3178
sV\u758f
I3179
sV\u960e
I3180
sV\u5d14
I3181
sV\u8d9f
I3182
sV\u52a1
I3183
sV\u97a3
I3184
sV\u7f28
I3185
sV\u60ad
I3186
sV\u8d34
I3187
sV\u5236
I3188
sV\u9738
I3189
sV\u82c1
I3190
sV\u6042
I3191
sV\u53cb
I3192
sV\u6c4a
I3193
sV\u7852
I3194
sV\u9cd5
I3195
sV\u6bdb
I3196
sV\u845a
I3197
sV\u5360
I3198
sV\u77e3
I3199
sV\u9062
I3200
sV\u5564
I3201
sV\u79e7
I3202
sV\u8ff3
I3203
sV\u6d74
I3204
sV\u56f9
I3205
sV\u797c
I3206
sV\u6405
I3207
sV\u8584
I3208
sV\u6e09
I3209
sV\u8f88
I3210
sV\u918c
I3211
sV\u568e
I3212
sV\u5892
I3213
sV\u6296
I3214
sV\u5723
I3215
sV\u5927
I3216
sV\u7aa6
I3217
sV\u9e29
I3218
sV\u632b
I3219
sV\u7caa
I3220
sV\u652f
I3221
sV\u6f33
I3222
sV\u94ba
I3223
sV\u9ebe
I3224
sV\u4e49
I3225
sV\u5c55
I3226
sV\u7261
I3227
sV\u5ae6
I3228
sV\u5cea
I3229
sV\u4f73
I3230
sV\u5177
I3231
sV\u987d
I3232
sV\u7efe
I3233
sV\u8702
I3234
sV\u748b
I3235
sV\u560c
I3236
sV\u7893
I3237
sV\u4f9d
I3238
sV\u90a3
I3239
sV\u53a5
I3240
sV\u59a9
I3241
sV\u67ad
I3242
sV\u8c30
I3243
sV\u6bb5
I3244
sV\u71b9
I3245
sV\u9038
I3246
sV\u533a
I3247
sV\u7fbd
I3248
sV\u6742
I3249
sV\u83c5
I3250
sV\u4ec7
I3251
sV\u6d46
I3252
sV\u89c9
I3253
sV\u714e
I3254
sV\u8556
I3255
sV\u6cdb
I3256
sV\u835a
I3257
sV\u895e
I3258
sV\u9762
I3259
sV\u7ee7
I3260
sV\u82ef
I3261
sV\u6c70
I3262
sV\u88f3
I3263
sV\u96f7
I3264
sV\u51f9
I3265
sV\u7078
I3266
sV\u5ffd
I3267
sV\u8888
I3268
sV\u9c90
I3269
sV\u5f92
I3270
sV\u7b15
I3271
sV\u9521
I3272
sV\u5e27
I3273
sV\u7da6
I3274
sV\u7baa
I3275
sV\u6833
I3276
sV\u7a3f
I3277
sV\u64c0
I3278
sV\u8043
I3279
sV\u62c4
I3280
sV\u8e47
I3281
sV\u574d
I3282
sV\u5b55
I3283
sV\u94e0
I3284
sV\u5de6
I3285
sV\u98e8
I3286
sV\u73fa
I3287
sV\u5a7f
I3288
sV\u79fe
I3289
sV\u8c06
I3290
sV\u570c
I3291
sV\u738f
I3292
sV\u5d10
I3293
sV\u91a3
I3294
sV\u58a9
I3295
sV\u6cb1
I3296
sV\u8d30
I3297
sV\u4e32
I3298
sV\u6ab5
I3299
sV\u70b9
I3300
sV\u523a
I3301
sV\u7ebd
I3302
sV\u84c1
I3303
sV\u96cd
I3304
sV\u59d3
I3305
sV\u4f5c
I3306
sV\u9662
I3307
sV\u5364
I3308
sV\u7178
I3309
sV\u6401
I3310
sV\u6809
I3311
sV\u8019
I3312
sV\u629a
I3313
sV\u8e1d
I3314
sV\u5f27
I3315
sV\u7ca6
I3316
sV\u652b
I3317
sV\u632f
I3318
sV\u80ae
I3319
sV\u8eb2
I3320
sV\u7737
I3321
sV\u94b6
I3322
sV\u63c4
I3323
sV\u934f
I3324
sV\u5c51
I3325
sV\u5a55
I3326
sV\u6059
I3327
sV\u8fdc
I3328
sV\u56e2
I3329
sV\u5ce6
I3330
sV\u60ee
I3331
sV\u5777
I3332
sV\u74f6
I3333
sV\u768b
I3334
sV\u540c
I3335
sV\u5e10
I3336
sV\u6218
I3337
sV\u7620
I3338
sV\u51a5
I3339
sV\u65ad
I3340
sV\u73b9
I3341
sV\u8bc9
I3342
sV\u50cf
I3343
sV\u996a
I3344
sV\u80ef
I3345
sV\u4ff1
I3346
sV\u94f7
I3347
sV\u53f9
I3348
sV\u5dfd
I3349
sV\u8680
I3350
sV\u8084
I3351
sV\u948c
I3352
sV\u9894
I3353
sV\u4e1b
I3354
sV\u8d1d
I3355
sV\u5c27
I3356
sV\u602f
I3357
sV\u91ba
I3358
sV\u8c47
I3359
sV\u964b
I3360
sV\u904f
I3361
sV\u7ed0
I3362
sV\u5955
I3363
sV\u7761
I3364
sV\u8f71
I3365
sV\u5477
I3366
sV\u77f6
I3367
sV\u5e7b
I3368
sV\u7bfe
I3369
sV\u880a
I3370
sV\u718f
I3371
sV\u5914
I3372
sV\u8f9b
I3373
sV\u7720
I3374
sV\u50a5
I3375
sV\u7b28
I3376
sV\u64ad
I3377
sV\u852c
I3378
sV\u68b5
I3379
sV\u8934
I3380
sV\u5636
I3381
sV\u72b9
I3382
sV\u503a
I3383
sV\u7cbd
I3384
sV\u57cb
I3385
sV\u94cd
I3386
sV\u51cf
I3387
sV\u9ed1
I3388
sV\u5bd3
I3389
sV\u98d5
I3390
sV\u65d7
I3391
sV\u6fdb
I3392
sV\u805a
I3393
sV\u69df
I3394
sV\u5760
I3395
sV\u73e3
I3396
sV\u9e66
I3397
sV\u656c
I3398
sV\u8bf3
I3399
sV\u95f7
I3400
sV\u6005
I3401
sV\u4e86
I3402
sV\u6a09
I3403
sV\u740d
I3404
sV\u6696
I3405
sV\u609a
I3406
sV\u9621
I3407
sV\u5323
I3408
sV\u5d27
I3409
sV\u7ea6
I3410
sV\u672b
I3411
sV\u82ae
I3412
sV\u7537
I3413
sV\u96b6
I3414
sV\u90ba
I3415
sV\u8343
I3416
sV\u83d8
I3417
sV\u6c5d
I3418
sV\u846d
I3419
sV\u62ee
I3420
sV\u5577
I3421
sV\u5f7b
I3422
sV\u6c83
I3423
sV\u8106
I3424
sV\u870a
I3425
sV\u5a0c
I3426
sV\u6c18
I3427
sV\u809b
I3428
sV\u621c
I3429
sV\u9ca3
I3430
sV\u7428
I3431
sV\u6bad
I3432
sV\u5f3a
I3433
sV\u553e
I3434
sV\u89c1
I3435
sV\u8fc5
I3436
sV\u85c9
I3437
sV\u91d1
I3438
sV\u54d3
I3439
sV\u7352
I3440
sV\u855e
I3441
sV\u5468
I3442
sV\u6070
I3443
sV\u6674
I3444
sV\u53fd
I3445
sV\u6901
I3446
sV\u9a8c
I3447
sV\u9694
I3448
sV\u77aa
I3449
sV\u6e2f
I3450
sV\u83b2
I3451
sV\u7a37
I3452
sV\u5cb8
I3453
sV\u52bc
I3454
sV\u763f
I3455
sV\u68c0
I3456
sV\u8247
I3457
sV\u9e4f
I3458
sV\u5151
I3459
sV\u76d4
I3460
sV\u6d59
I3461
sV\u4fda
I3462
sV\u82dc
I3463
sV\u94e8
I3464
sV\u6dee
I3465
sV\u8171
I3466
sV\u5a77
I3467
sV\u507b
I3468
sV\u6387
I3469
sV\u8006
I3470
sV\u819b
I3471
sV\u879f
I3472
sV\u7920
I3473
sV\u5ea5
I3474
sV\u7f24
I3475
sV\u54a9
I3476
sV\u7528
I3477
sV\u60b1
I3478
sV\u8734
I3479
sV\u7cb9
I3480
sV\u543e
I3481
sV\u88c1
I3482
sV\u84c9
I3483
sV\u59cb
I3484
sV\u5fcf
I3485
sV\u90d1
I3486
sV\u55d3
I3487
sV\u7252
I3488
sV\u96d5
I3489
sV\u6bd7
I3490
sV\u8e5a
I3491
sV\u5960
I3492
sV\u5f64
I3493
sV\u966a
I3494
sV\u6170
I3495
sV\u6e05
I3496
sV\u8f84
I3497
sV\u7a0d
I3498
sV\u7011
I3499
sV\u9190
I3500
sV\u8c19
I3501
sV\u649e
I3502
sV\u9e25
I3503
sV\u6f2f
I3504
sV\u94be
I3505
sV\u8d43
I3506
sV\u4e45
I3507
sV\u9553
I3508
sV\u83dc
I3509
sV\u95e8
I3510
sV\u4f6f
I3511
sV\u6cee
I3512
sV\u517b
I3513
sV\u7efa
I3514
sV\u6e83
I3515
sV\u8902
I3516
sV\u8306
I3517
sV\u9f0e
I3518
sV\u7693
I3519
sV\u601c
I3520
sV\u5ba1
I3521
sV\u7a20
I3522
sV\u57a9
I3523
sV\u69ad
I3524
sV\u8230
I3525
sV\u7fb9
I3526
sV\u9e38
I3527
sV\u903c
I3528
sV\u573e
I3529
sV\u8bc1
I3530
sV\u4ec3
I3531
sV\u6942
I3532
sV\u6346
I3533
sV\u4e58
I3534
sV\u62db
I3535
sV\u8d5a
I3536
sV\u7ee3
I3537
sV\u70e7
I3538
sV\u9366
I3539
sV\u5668
I3540
sV\u6270
I3541
sV\u86f3
I3542
sV\u51fd
I3543
sV\u707c
I3544
sV\u94ff
I3545
sV\u6709
I3546
sV\u988c
I3547
sV\u5192
I3548
sV\u6b96
I3549
sV\u679e
I3550
sV\u6c2f
I3551
sV\u6633
I3552
sV\u7837
I3553
sV\u5eb8
I3554
sV\u6cc4
I3555
sV\u66c8
I3556
sV\u5351
I3557
sV\u72d0
I3558
sV\u5555
I3559
sV\u80dc
I3560
sV\u53e6
I3561
sV\u96e8
I3562
sV\u55ea
I3563
sV\u6fee
I3564
sV\u77fe
I3565
sV\u8206
I3566
sV\u5310
I3567
sV\u9012
I3568
sV\u5514
I3569
sV\u839b
I3570
sV\u7b20
I3571
sV\u7728
I3572
sV\u68ad
I3573
sV\u62b1
I3574
sV\u64b5
I3575
sV\u8534
I3576
sV\u5a36
I3577
sV\u7eb9
I3578
sV\u5c3a
I3579
sV\u70bd
I3580
sV\u4fc3
I3581
sV\u6842
I3582
sV\u86c9
I3583
sV\u644a
I3584
sV\u94d5
I3585
sV\u4f58
I3586
sV\u8c5a
I3587
sV\u865e
I3588
sV\u71e7
I3589
sV\u5768
I3590
sV\u8beb
I3591
sV\u8def
I3592
sV\u6574
I3593
sV\u8d84
I3594
sV\u6609
I3595
sV\u8788
I3596
sV\u780d
I3597
sV\u6c9a
I3598
sV\u80b2
I3599
sV\u9ab6
I3600
sV\u51bc
I3601
sV\u96be
I3602
sV\u6dc4
I3603
sV\u584d
I3604
sV\u5251
I3605
sV\u73d0
I3606
sV\u9753
I3607
sV\u5455
I3608
sV\u75d4
I3609
sV\u8fd8
I3610
sV\u54ea
I3611
sV\u8475
I3612
sV\u907d
I3613
sV\u76fe
I3614
sV\u6687
I3615
sV\u5e0c
I3616
sV\u5410
I3617
sV\u5ba5
I3618
sV\u96a7
I3619
sV\u79b9
I3620
sV\u8bc5
I3621
sV\u5ccb
I3622
sV\u794e
I3623
sV\u8d56
I3624
sV\u62df
I3625
sV\u5c60
I3626
sV\u4fed
I3627
sV\u80f3
I3628
sV\u59f9
I3629
sV\u6d01
I3630
sV\u6109
I3631
sV\u7511
I3632
sV\u5792
I3633
sV\u7315
I3634
sV\u6b9a
I3635
sV\u5627
I3636
sV\u4eac
I3637
sV\u6a2f
I3638
sV\u56bc
I3639
sV\u7ecc
I3640
sV\u9053
I3641
sV\u5355
I3642
sV\u88d8
I3643
sV\u55e6
I3644
sV\u90e8
I3645
sV\u53ea
I3646
sV\u8f6d
I3647
sV\u5e77
I3648
sV\u547b
I3649
sV\u527f
I3650
sV\u6787
I3651
sV\u5510
I3652
sV\u8f97
I3653
sV\u859b
I3654
sV\u7d20
I3655
sV\u7b24
I3656
sV\u50a9
I3657
sV\u62b5
I3658
sV\u8334
I3659
sV\u78b9
I3660
sV\u9938
I3661
sV\u503e
I3662
sV\u6446
I3663
sV\u9ecd
I3664
sV\u94d1
I3665
sV\u7652
I3666
sV\u79e3
I3667
sV\u5b64
I3668
sV\u5168
I3669
sV\u8bef
I3670
sV\u6570
I3671
sV\u81f3
I3672
sV\u58f9
I3673
sV\u7978
I3674
sV\u95fb
I3675
sV\u56fd
I3676
sV\u8188
I3677
sV\u9f8c
I3678
sV\u4f17
I3679
sV\u7ea2
I3680
sV\u4fac
I3681
sV\u9cb6
I3682
sV\u753b
I3683
sV\u733f
I3684
sV\u6dc0
I3685
sV\u8747
I3686
sV\u61c8
I3687
sV\u7fcc
I3688
sV\u9b4f
I3689
sV\u5451
I3690
sV\u54e6
I3691
sV\u8e6d
I3692
sV\u68ee
I3693
sV\u8471
I3694
sV\u66f2
I3695
sV\u5f77
I3696
sV\u9879
I3697
sV\u557b
I3698
sV\u7afa
I3699
sV\u537f
I3700
sV\u4e00
I3701
sV\u6487
I3702
sV\u810a
I3703
sV\u9512
I3704
sV\u5014
I3705
sV\u6a18
I3706
sV\u641c
I3707
sV\u5fa1
I3708
sV\u59a5
I3709
sV\u94a7
I3710
sV\u53a9
I3711
sV\u8c2c
I3712
sV\u67b1
I3713
sV\u593a
I3714
sV\u75bd
I3715
sV\u533e
I3716
sV\u8fc1
I3717
sV\u89c5
I3718
sV\u6746
I3719
sV\u7b4e
I3720
sV\u6cd7
I3721
sV\u60df
I3722
sV\u835e
I3723
sV\u7ae3
I3724
sV\u916a
I3725
sV\u6670
I3726
sV\u5bf9
I3727
sV\u55fd
I3728
sV\u6905
I3729
sV\u8884
I3730
sV\u6309
I3731
sV\u8288
I3732
sV\u9690
I3733
sV\u7115
I3734
sV\u699a
I3735
sV\u5a23
I3736
sV\u5427
I3737
sV\u8bae
I3738
sV\u6233
I3739
sV\u62c8
I3740
sV\u9e4b
I3741
sV\u7ccc
I3742
sV\u5751
I3743
sV\u76d0
I3744
sV\u70d4
I3745
sV\u655d
I3746
sV\u7f61
I3747
sV\u9ee0
I3748
sV\u5de2
I3749
sV\u7965
I3750
sV\u8d6d
I3751
sV\u567b
I3752
sV\u507f
I3753
sV\u6b83
I3754
sV\u6587
I3755
sV\u798f
I3756
sV\u5ea1
I3757
sV\u7f20
I3758
sV\u52a9
I3759
sV\u8d2c
I3760
sV\u583a
I3761
sV\u6c42
I3762
sV\u88c5
I3763
sV\u9ccd
I3764
sV\u7452
I3765
sV\u75e7
I3766
sV\u8feb
I3767
sV\u6770
I3768
sV\u54fd
I3769
sV\u6805
I3770
sV\u5492
I3771
sV\u841d
I3772
sV\u9e21
I3773
sV\u5527
I3774
sV\u6f2b
I3775
sV\u84b2
I3776
sV\u5bb8
I3777
sV\u6fc0
I3778
sV\u5055
I3779
sV\u4ed6
I3780
sV\u6a59
I3781
sV\u8bd8
I3782
sV\u85dc
I3783
sV\u7269
I3784
sV\u8671
I3785
sV\u7ef6
I3786
sV\u9a79
I3787
sV\u78fa
I3788
sV\u7483
I3789
sV\u6c93
I3790
sV\u4e14
I3791
sV\u5599
I3792
sV\u989b
I3793
sV\u5b9d
I3794
sV\u9e9f
I3795
sV\u6020
I3796
sV\u6c28
I3797
sV\u552e
I3798
sV\u65b9
I3799
sV\u8438
I3800
sV\u654e
I3801
sV\u89d1
I3802
sV\u72d7
I3803
sV\u5458
I3804
sV\u7edf
I3805
sV\u8966
I3806
sV\u53ed
I3807
sV\u96ef
I3808
sV\u5ff5
I3809
sV\u82f7
I3810
sV\u6478
I3811
sV\u9080
I3812
sV\u5382
I3813
sV\u5986
I3814
sV\u9c88
I3815
sV\u5f8a
I3816
sV\u5217
I3817
sV\u9519
I3818
sV\u63a2
I3819
sV\u8725
I3820
sV\u8d29
I3821
sV\u52ac
I3822
sV\u6237
I3823
sV\u87ba
I3824
sV\u8dbe
I3825
sV\u5141
I3826
sV\u804b
I3827
sV\u62cc
I3828
sV\u864f
I3829
sV\u4f55
I3830
sV\u6ed4
I3831
sV\u7559
I3832
sV\u57da
I3833
sV\u7b5d
I3834
sV\u5dde
I3835
sV\u6765
I3836
sV\u86e4
I3837
sV\u6d69
I3838
sV\u4fea
I3839
sV\u9971
I3840
sV\u8579
I3841
sV\u5704
I3842
sV\u618b
I3843
sV\u840e
I3844
sV\u6d93
I3845
sV\u5499
I3846
sV\u7518
I3847
sV\u9f9f
I3848
sV\u6120
I3849
sV\u8ba7
I3850
sV\u542e
I3851
sV\u78b1
I3852
sV\u5a32
I3853
sV\u7eb5
I3854
sV\u64b9
I3855
sV\u90c1
I3856
sV\u96c5
I3857
sV\u5bc7
I3858
sV\u82cd
I3859
sV\u5b5c
I3860
sV\u7fdf
I3861
sV\u6b7c
I3862
sV\u5e8a
I3863
sV\u620d
I3864
sV\u6811
I3865
sV\u5317
I3866
sV\u7096
I3867
sV\u5f1f
I3868
sV\u62a2
I3869
sV\u68a6
I3870
sV\u8c29
I3871
sV\u6eaa
I3872
sV\u772f
I3873
sV\u94ae
I3874
sV\u86ba
I3875
sV\u9b47
I3876
sV\u5c49
I3877
sV\u814b
I3878
sV\u69d0
I3879
sV\u8d53
I3880
sV\u50d6
I3881
sV\u7459
I3882
sV\u56da
I3883
sV\u6c69
I3884
sV\u8de8
I3885
sV\u516b
I3886
sV\u4eea
I3887
sV\u576f
I3888
sV\u74ee
I3889
sV\u60f6
I3890
sV\u4f7f
I3891
sV\u6cfe
I3892
sV\u5200
I3893
sV\u9102
I3894
sV\u5404
I3895
sV\u7887
I3896
sV\u5e08
I3897
sV\u8912
I3898
sV\u7618
I3899
sV\u9a9b
I3900
sV\u9c9f
I3901
sV\u6220
I3902
sV\u86a3
I3903
sV\u4fa9
I3904
sV\u572e
I3905
sV\u7bb1
I3906
sV\u67b9
I3907
sV\u8638
I3908
sV\u93c1
I3909
sV\u674e
I3910
sV\u8bd1
I3911
sV\u4ed3
I3912
sV\u5658
I3913
sV\u955a
I3914
sV\u7cdf
I3915
sV\u8b66
I3916
sV\u51ed
I3917
sV\u94ef
I3918
sV\u7a70
I3919
sV\u6678
I3920
sV\u7301
I3921
sV\u7f09
I3922
sV\u808c
I3923
sV\u8c94
I3924
sV\u7396
I3925
sV\u759a
I3926
sV\u7f9e
I3927
sV\u6daa
I3928
sV\u50ac
I3929
sV\u742f
I3930
sV\u8fbe
I3931
sV\u5341
I3932
sV\u7ec8
I3933
sV\u824b
I3934
sV\u8e53
I3935
sV\u53d6
I3936
sV\u795d
I3937
sV\u6361
I3938
sV\u546f
I3939
sV\u77ee
I3940
sV\u5e73
I3941
sV\u63f6
I3942
sV\u65fa
I3943
sV\u5300
I3944
sV\u9002
I3945
sV\u5f08
I3946
sV\u6320
I3947
sV\u4ea9
I3948
sV\u70ad
I3949
sV\u66b9
I3950
sV\u4e3e
I3951
sV\u57c3
I3952
sV\u94c5
I3953
sV\u7a46
I3954
sV\u80cd
I3955
sV\u9e5e
I3956
sV\u8c6a
I3957
sV\u50ed
I3958
sV\u95ef
I3959
sV\u8bfb
I3960
sV\u697c
I3961
sV\u7405
I3962
sV\u9f88
I3963
sV\u600d
I3964
sV\u8d94
I3965
sV\u9619
I3966
sV\u5b1b
I3967
sV\u5d1f
I3968
sV\u8425
I3969
sV\u8e29
I3970
sV\u732b
I3971
sV\u6caa
I3972
sV\u51ac
I3973
sV\u752f
I3974
sV\u5bb0
I3975
sV\u7f33
I3976
sV\u5241
I3977
sV\u73c0
I3978
sV\u785d
I3979
sV\u83e0
I3980
sV\u85e4
I3981
sV\u536b
I3982
sV\u906d
I3983
sV\u76ee
I3984
sV\u9a71
I3985
sV\u78f2
I3986
sV\u8679
I3987
sV\u6893
I3988
sV\u5199
I3989
sV\u9c9b
I3990
sV\u77ad
I3991
sV\u8038
I3992
sV\u93c5
I3993
sV\u614e
I3994
sV\u8dd1
I3995
sV\u8bd5
I3996
sV\u76d7
I3997
sV\u9556
I3998
sV\u7adf
I3999
sV\u8d66
I4000
sV\u94eb
I4001
sV\u5df1
I4002
sV\u7a74
I4003
sV\u6078
I4004
sV\u5782
I4005
sV\u9888
I4006
sV\u670d
I4007
sV\u868c
I4008
sV\u6d11
I4009
sV\u7596
I4010
sV\u9119
I4011
sV\u739a
I4012
sV\u5a1f
I4013
sV\u8521
I4014
sV\u67a2
I4015
sV\u4e27
I4016
sV\u6da6
I4017
sV\u83ba
I4018
sV\u5541
I4019
sV\u5345
I4020
sV\u72c4
I4021
sV\u5949
I4022
sV\u66cc
I4023
sV\u824f
I4024
sV\u55d6
I4025
sV\u7f5d
I4026
sV\u9edc
I4027
sV\u88e8
I4028
sV\u526f
I4029
sV\u71ee
I4030
sV\u65f6
I4031
sV\u8179
I4032
sV\u8f7d
I4033
sV\u9602
I4034
sV\u658b
I4035
sV\u638f
I4036
sV\u7118
I4037
sV\u7f1c
I4038
sV\u6520
I4039
sV\u6324
I4040
sV\u7cb1
I4041
sV\u8138
I4042
sV\u94c1
I4043
sV\u51c3
I4044
sV\u77d7
I4045
sV\u95eb
I4046
sV\u56ed
I4047
sV\u776c
I4048
sV\u8dfb
I4049
sV\u4efd
I4050
sV\u6f7c
I4051
sV\u8bff
I4052
sV\u9988
I4053
sV\u6c11
I4054
sV\u4e92
I4055
sV\u5d1b
I4056
sV\u6ca6
I4057
sV\u752b
I4058
sV\u90ae
I4059
sV\u5bb4
I4060
sV\u6d3b
I4061
sV\u834f
I4062
sV\u6bd4
I4063
sV\u6869
I4064
sV\u556b
I4065
sV\u536f
I4066
sV\u5973
I4067
sV\u5600
I4068
sV\u9502
I4069
sV\u5a08
I4070
sV\u668b
I4071
sV\u830e
I4072
sV\u4e10
I4073
sV\u9497
I4074
sV\u5d9d
I4075
sV\u6620
I4076
sV\u6a28
I4077
sV\u532e
I4078
sV\u7fb1
I4079
sV\u9e30
I4080
sV\u8238
I4081
sV\u52c3
I4082
sV\u5cc7
I4083
sV\u634e
I4084
sV\u8fd1
I4085
sV\u6d52
I4086
sV\u9756
I4087
sV\u7edb
I4088
sV\u915a
I4089
sV\u62e3
I4090
sV\u8f66
I4091
sV\u90ef
I4092
sV\u5ff1
I4093
sV\u59f5
I4094
sV\u7701
I4095
sV\u5582
I4096
sV\u9a88
I4097
sV\u598a
I4098
sV\u848c
I4099
sV\u5417
I4100
sV\u5e1b
I4101
sV\u8721
I4102
sV\u762b
I4103
sV\u54ac
I4104
sV\u7a33
I4105
sV\u81ba
I4106
sV\u8bbe
I4107
sV\u5145
I4108
sV\u4f51
I4109
sV\u5bde
I4110
sV\u6761
I4111
sV\u80e4
I4112
sV\u566b
I4113
sV\u956d
I4114
sV\u5a73
I4115
sV\u9975
I4116
sV\u4f10
I4117
sV\u6b93
I4118
sV\u8c12
I4119
sV\u9f9b
I4120
sV\u6124
I4121
sV\u522e
I4122
sV\u7eb1
I4123
sV\u62b9
I4124
sV\u8338
I4125
sV\u6cbd
I4126
sV\u8d3c
I4127
sV\u96c1
I4128
sV\u90c5
I4129
sV\u624e
I4130
sV\u88d5
I4131
sV\u79df
I4132
sV\u63e3
I4133
sV\u8e66
I4134
sV\u97eb
I4135
sV\u54ed
I4136
sV\u6d7c
I4137
sV\u7601
I4138
sV\u5482
I4139
sV\u5e86
I4140
sV\u8f90
I4141
sV\u7696
I4142
sV\u5f1b
I4143
sV\u591f
I4144
sV\u6ea6
I4145
sV\u712f
I4146
sV\u92ae
I4147
sV\u7b33
I4148
sV\u9cb2
I4149
sV\u80ba
I4150
sV\u693f
I4151
sV\u5641
I4152
sV\u5a49
I4153
sV\u65cc
I4154
sV\u7259
I4155
sV\u50da
I4156
sV\u87e0
I4157
sV\u8be8
I4158
sV\u72ee
I4159
sV\u9e71
I4160
sV\u5b73
I4161
sV\u9875
I4162
sV\u4f7b
I4163
sV\u60fa
I4164
sV\u5800
I4165
sV\u7287
I4166
sV\u5408
I4167
sV\u6e8f
I4168
sV\u9a97
I4169
sV\u5d99
I4170
sV\u909b
I4171
sV\u539d
I4172
sV\u4fa5
I4173
sV\u6e24
I4174
sV\u7bad
I4175
sV\u9634
I4176
sV\u4f3a
I4177
sV\u52c7
I4178
sV\u8bcd
I4179
sV\u6d4e
I4180
sV\u70db
I4181
sV\u525c
I4182
sV\u76df
I4183
sV\u955e
I4184
sV\u6ce3
I4185
sV\u62e7
I4186
sV\u9eef
I4187
sV\u7070
I4188
sV\u94f3
I4189
sV\u627c
I4190
sV\u7901
I4191
sV\u9880
I4192
sV\u7f05
I4193
sV\u5186
I4194
sV\u9488
I4195
sV\u6715
I4196
sV\u7f9a
I4197
sV\u561f
I4198
sV\u67aa
I4199
sV\u7433
I4200
sV\u603b
I4201
sV\u7ec4
I4202
sV\u5549
I4203
sV\u74c8
I4204
sV\u586b
I4205
sV\u9171
I4206
sV\u5473
I4207
sV\u73f2
I4208
sV\u837d
I4209
sV\u5f04
I4210
sV\u7387
I4211
sV\u9006
I4212
sV\u8c0e
I4213
sV\u6593
I4214
sV\u8212
I4215
sV\u7d18
I4216
sV\u919b
I4217
sV\u529d
I4218
sV\u731c
I4219
sV\u6920
I4220
sV\u8da3
I4221
sV\u4ea5
I4222
sV\u6cb9
I4223
sV\u8d38
I4224
sV\u4e3a
I4225
sV\u62bd
I4226
sV\u833c
I4227
sV\u7a42
I4228
sV\u94c9
I4229
sV\u4fcf
I4230
sV\u6252
I4231
sV\u5d58
I4232
sV\u9e5a
I4233
sV\u535c
I4234
sV\u4f64
I4235
sV\u95f3
I4236
sV\u56f5
I4237
sV\u8bf7
I4238
sV\u6d78
I4239
sV\u81fb
I4240
sV\u7801
I4241
sV\u9980
I4242
sV\u9f84
I4243
sV\u7409
I4244
sV\u6615
I4245
sV\u5b17
I4246
sV\u571f
I4247
sV\u749e
I4248
sV\u8821
I4249
sV\u60a6
I4250
sV\u8429
I4251
sV\u51b0
I4252
sV\u7533
I4253
sV\u6b37
I4254
sV\u8eba
I4255
sV\u79c0
I4256
sV\u5e45
I4257
sV\u75c8
I4258
sV\u67d4
I4259
sV\u54de
I4260
sV\u6861
I4261
sV\u8fe4
I4262
sV\u6469
I4263
sV\u9a6d
I4264
sV\u72f2
I4265
sV\u9675
I4266
sV\u8c79
I4267
sV\u5c04
I4268
sV\u5608
I4269
sV\u6c8f
I4270
sV\u8112
I4271
sV\u9897
I4272
sV\u5f99
I4273
sV\u949f
I4274
sV\u6c24
I4275
sV\u6628
I4276
sV\u75b5
I4277
sV\u6fb9
I4278
sV\u754a
I4279
sV\u85d5
I4280
sV\u505c
I4281
sV\u975e
I4282
sV\u60e7
I4283
sV\u8366
I4284
sV\u9aeb
I4285
sV\u786c
I4286
sV\u53f1
I4287
sV\u96f3
I4288
sV\u55f5
I4289
sV\u607c
I4290
sV\u84ff
I4291
sV\u5982
I4292
sV\u5386
I4293
sV\u7709
I4294
sV\u9688
I4295
sV\u558a
I4296
sV\u690d
I4297
sV\u6311
I4298
sV\u521b
I4299
sV\u541f
I4300
sV\u8d25
I4301
sV\u6837
I4302
sV\u8bb6
I4303
sV\u9e43
I4304
sV\u9047
I4305
sV\u76c8
I4306
sV\u62d0
I4307
sV\u8653
I4308
sV\u9ed8
I4309
sV\u90dc
I4310
sV\u6d65
I4311
sV\u6769
I4312
sV\u996d
I4313
sV\u5c6f
I4314
sV\u5708
I4315
sV\u6b8b
I4316
sV\u9997
I4317
sV\u5e99
I4318
sV\u7f18
I4319
sV\u711c
I4320
sV\u6b20
I4321
sV\u8fa3
I4322
sV\u6728
I4323
sV\u5e2e
I4324
sV\u9534
I4325
sV\u9ac1
I4326
sV\u5fc3
I4327
sV\u9cc5
I4328
sV\u51c7
I4329
sV\u96c9
I4330
sV\u6e4e
I4331
sV\u82d1
I4332
sV\u6052
I4333
sV\u515c
I4334
sV\u8862
I4335
sV\u97f3
I4336
sV\u7574
I4337
sV\u6f78
I4338
sV\u85ff
I4339
sV\u4e8e
I4340
sV\u6211
I4341
sV\u7a96
I4342
sV\u901d
I4343
sV\u68a2
I4344
sV\u8c25
I4345
sV\u7b2b
I4346
sV\u7d2f
I4347
sV\u653f
I4348
sV\u5c45
I4349
sV\u69cc
I4350
sV\u8d4f
I4351
sV\u63d0
I4352
sV\u8753
I4353
sV\u5ad6
I4354
sV\u91dc
I4355
sV\u56de
I4356
sV\u6a61
I4357
sV\u8be0
I4358
sV\u8de4
I4359
sV\u6669
I4360
sV\u5d6f
I4361
sV\u7eee
I4362
sV\u5773
I4363
sV\u6cfa
I4364
sV\u66fe
I4365
sV\u5a04
I4366
sV\u7687
I4367
sV\u9506
I4368
sV\u8712
I4369
sV\u5999
I4370
sV\u949b
I4371
sV\u6c20
I4372
sV\u6028
I4373
sV\u9e2c
I4374
sV\u592e
I4375
sV\u75b1
I4376
sV\u7f42
I4377
sV\u91c9
I4378
sV\u5858
I4379
sV\u565c
I4380
sV\u915e
I4381
sV\u68e3
I4382
sV\u836a
I4383
sV\u5fed
I4384
sV\u9aef
I4385
sV\u7470
I4386
sV\u53f5
I4387
sV\u9c80
I4388
sV\u9a84
I4389
sV\u5586
I4390
sV\u7109
I4391
sV\u8490
I4392
sV\u541b
I4393
sV\u8d21
I4394
sV\u63aa
I4395
sV\u8bba
I4396
sV\u623f
I4397
sV\u9647
I4398
sV\u5149
I4399
sV\u70c8
I4400
sV\u4f4d
I4401
sV\u62d4
I4402
sV\u98d8
I4403
sV\u6b65
I4404
sV\u9571
I4405
sV\u877d
I4406
sV\u5899
I4407
sV\u7ead
I4408
sV\u9f2c
I4409
sV\u9530
I4410
sV\u5632
I4411
sV\u9ac5
I4412
sV\u57c7
I4413
sV\u684e
I4414
sV\u84d1
I4415
sV\u6652
I4416
sV\u5958
I4417
sV\u75db
I4418
sV\u575c
I4419
sV\u7374
I4420
sV\u8ff7
I4421
sV\u6978
I4422
sV\u85fb
I4423
sV\u5486
I4424
sV\u6e0d
I4425
sV\u6215
I4426
sV\u5f17
I4427
sV\u551b
I4428
sV\u8c21
I4429
sV\u6ea2
I4430
sV\u7d2b
I4431
sV\u653b
I4432
sV\u80be
I4433
sV\u5c41
I4434
sV\u8d4b
I4435
sV\u4e4d
I4436
sV\u8153
I4437
sV\u5ada
I4438
sV\u6c61
I4439
sV\u8be4
I4440
sV\u6069
I4441
sV\u9e6d
I4442
sV\u5173
I4443
sV\u76f2
I4444
sV\u4f77
I4445
sV\u867d
I4446
sV\u5e00
I4447
sV\u7a83
I4448
sV\u7487
I4449
sV\u9706
I4450
sV\u5208
I4451
sV\u688f
I4452
sV\u6293
I4453
sV\u5b99
I4454
sV\u559d
I4455
sV\u6e20
I4456
sV\u71b5
I4457
sV\u4f36
I4458
sV\u8a38
I4459
sV\u65bd
I4460
sV\u843c
I4461
sV\u54c7
I4462
sV\u93c9
I4463
sV\u4ecb
I4464
sV\u714a
I4465
sV\u87d1
I4466
sV\u7cd7
I4467
sV\u76db
I4468
sV\u545c
I4469
sV\u70df
I4470
sV\u4e60
I4471
sV\u8d62
I4472
sV\u7f01
I4473
sV\u5d82
I4474
sV\u9884
I4475
sV\u8c8c
I4476
sV\u6115
I4477
sV\u561b
I4478
sV\u501f
I4479
sV\u8925
I4480
sV\u5cac
I4481
sV\u603f
I4482
sV\u7ec0
I4483
sV\u5349
I4484
sV\u72c8
I4485
sV\u8e4b
I4486
sV\u6ccc
I4487
sV\u5fd6
I4488
sV\u9ad8
I4489
sV\u59da
I4490
sV\u94dc
I4491
sV\u88e4
I4492
sV\u7bee
I4493
sV\u9175
I4494
sV\u5f00
I4495
sV\u5904
I4496
sV\u9606
I4497
sV\u5308
I4498
sV\u900a
I4499
sV\u549d
I4500
sV\u751c
I4501
sV\u4ea1
I4502
sV\u6f20
I4503
sV\u8ba3
I4504
sV\u6924
I4505
sV\u6328
I4506
sV\u76b1
I4507
sV\u9730
I4508
sV\u4e36
I4509
sV\u853c
I4510
sV\u6452
I4511
sV\u5b58
I4512
sV\u77db
I4513
sV\u555c
I4514
sV\u4f60
I4515
sV\u8c62
I4516
sV\u65e7
I4517
sV\u806a
I4518
sV\u5ced
I4519
sV\u56f1
I4520
sV\u50f5
I4521
sV\u8df7
I4522
sV\u657c
I4523
sV\u5c82
I4524
sV\u9984
I4525
sV\u6015
I4526
sV\u789a
I4527
sV\u6ca2
I4528
sV\u7f2b
I4529
sV\u94b2
I4530
sV\u613f
I4531
sV\u7fc0
I4532
sV\u9547
I4533
sV\u73c8
I4534
sV\u6dcc
I4535
sV\u67d0
I4536
sV\u5ed6
I4537
sV\u6865
I4538
sV\u6269
I4539
sV\u5373
I4540
sV\u9075
I4541
sV\u8a79
I4542
sV\u68fa
I4543
sV\u62fe
I4544
sV\u6000
I4545
sV\u8785
I4546
sV\u568f
I4547
sV\u9991
I4548
sV\u8116
I4549
sV\u6599
I4550
sV\u871a
I4551
sV\u8d1e
I4552
sV\u5020
I4553
sV\u77a5
I4554
sV\u5624
I4555
sV\u86af
I4556
sV\u6b32
I4557
sV\u4fb5
I4558
sV\u7136
I4559
sV\u55b9
I4560
sV\u773a
I4561
sV\u5bbd
I4562
sV\u9ebf
I4563
sV\u76cf
I4564
sV\u6458
I4565
sV\u8bdd
I4566
sV\u4edf
I4567
sV\u63ed
I4568
sV\u9176
I4569
sV\u75f9
I4570
sV\u5478
I4571
sV\u977a
I4572
sV\u8403
I4573
sV\u6382
I4574
sV\u8a07
I4575
sV\u6986
I4576
sV\u900b
I4577
sV\u530d
I4578
sV\u5f15
I4579
sV\u6217
I4580
sV\u8a9c
I4581
sV\u53a2
I4582
sV\u9ca8
I4583
sV\u5faa
I4584
sV\u62ac
I4585
sV\u68b0
I4586
sV\u6eb4
I4587
sV\u5237
I4588
sV\u9539
I4589
sV\u83c2
I4590
sV\u89c6
I4591
sV\u6d49
I4592
sV\u7f55
I4593
sV\u67da
I4594
sV\u6dde
I4595
sV\u79e6
I4596
sV\u5d69
I4597
sV\u606b
I4598
sV\u666f
I4599
sV\u51f6
I4600
sV\u94f8
I4601
sV\u57fa
I4602
sV\u5dfe
I4603
sV\u8c89
I4604
sV\u9891
I4605
sV\u7910
I4606
sV\u7f14
I4607
sV\u6499
I4608
sV\u76a5
I4609
sV\u9e2a
I4610
sV\u87af
I4611
sV\u8db3
I4612
sV\u4eb5
I4613
sV\u65c3
I4614
sV\u8d48
I4615
sV\u4fdf
I4616
sV\u90e1
I4617
sV\u55e3
I4618
sV\u62ed
I4619
sV\u68f1
I4620
sV\u5578
I4621
sV\u7afd
I4622
sV\u6886
I4623
sV\u520d
I4624
sV\u970f
I4625
sV\u748e
I4626
sV\u5811
I4627
sV\u7a92
I4628
sV\u5e15
I4629
sV\u63ac
I4630
sV\u8e35
I4631
sV\u75b8
I4632
sV\u88c6
I4633
sV\u6c49
I4634
sV\u724d
I4635
sV\u53cc
I4636
sV\u94ce
I4637
sV\u59d0
I4638
sV\u6cde
I4639
sV\u9563
I4640
sV\u7eea
I4641
sV\u676f
I4642
sV\u95f8
I4643
sV\u56fa
I4644
sV\u8585
I4645
sV\u8f89
I4646
sV\u918d
I4647
sV\u548f
I4648
sV\u5e93
I4649
sV\u851a
I4650
sV\u5220
I4651
sV\u9122
I4652
sV\u75a5
I4653
sV\u82ab
I4654
sV\u753a
I4655
sV\u8e48
I4656
sV\u574e
I4657
sV\u7ed3
I4658
sV\u7260
I4659
sV\u876e
I4660
sV\u79fd
I4661
sV\u6b86
I4662
sV\u4f09
I4663
sV\u778e
I4664
sV\u889c
I4665
sV\u6c1f
I4666
sV\u51a2
I4667
sV\u7827
I4668
sV\u5ba6
I4669
sV\u60ac
I4670
sV\u8d35
I4671
sV\u9739
I4672
sV\u5c3f
I4673
sV\u81c2
I4674
sV\u6545
I4675
sV\u8bc6
I4676
sV\u7b51
I4677
sV\u63d6
I4678
sV\u6fde
I4679
sV\u5361
I4680
sV\u5565
I4681
sV\u7be6
I4682
sV\u5f69
I4683
sV\u626b
I4684
sV\u53f6
I4685
sV\u5ffe
I4686
sV\u538b
I4687
sV\u558f
I4688
sV\u9a91
I4689
sV\u8216
I4690
sV\u8e1e
I4691
sV\u5320
I4692
sV\u9022
I4693
sV\u5524
I4694
sV\u83ab
I4695
sV\u85af
I4696
sV\u7236
I4697
sV\u8340
I4698
sV\u914c
I4699
sV\u564e
I4700
sV\u86d9
I4701
sV\u7360
I4702
sV\u9ee9
I4703
sV\u60ed
I4704
sV\u8872
I4705
sV\u6cf5
I4706
sV\u76f9
I4707
sV\u8703
I4708
sV\u4e09
I4709
sV\u500d
I4710
sV\u950f
I4711
sV\u768e
I4712
sV\u5a11
I4713
sV\u9f13
I4714
sV\u5c15
I4715
sV\u61ac
I4716
sV\u8c35
I4717
sV\u6241
I4718
sV\u6e49
I4719
sV\u51cc
I4720
sV\u96ce
I4721
sV\u5bd0
I4722
sV\u98d2
I4723
sV\u62d6
I4724
sV\u8d5f
I4725
sV\u6ede
I4726
sV\u5261
I4727
sV\u81ec
I4728
sV\u8bf0
I4729
sV\u54fa
I4730
sV\u6400
I4731
sV\u8385
I4732
sV\u6808
I4733
sV\u548b
I4734
sV\u978d
I4735
sV\u5893
I4736
sV\u7a14
I4737
sV\u831a
I4738
sV\u4e1c
I4739
sV\u75a1
I4740
sV\u5420
I4741
sV\u73a5
I4742
sV\u5224
I4743
sV\u82af
I4744
sV\u9cbb
I4745
sV\u5fbd
I4746
sV\u793e
I4747
sV\u8244
I4748
sV\u6ec7
I4749
sV\u964c
I4750
sV\u5f52
I4751
sV\u8fdd
I4752
sV\u6e5c
I4753
sV\u7460
I4754
sV\u816e
I4755
sV\u6df1
I4756
sV\u8f72
I4757
sV\u9576
I4758
sV\u71f9
I4759
sV\u5e7c
I4760
sV\u8003
I4761
sV\u6b8a
I4762
sV\u5d11
I4763
sV\u8098
I4764
sV\u6c1b
I4765
sV\u6a1f
I4766
sV\u94a0
I4767
sV\u7023
I4768
sV\u57a2
I4769
sV\u5baa
I4770
sV\u8d31
I4771
sV\u70b8
I4772
sV\u5c3b
I4773
sV\u6345
I4774
sV\u8dc6
I4775
sV\u8bca
I4776
sV\u774d
I4777
sV\u91ce
I4778
sV\u5ad4
I4779
sV\u65d6
I4780
sV\u4f5d
I4781
sV\u5561
I4782
sV\u9063
I4783
sV\u77e2
I4784
sV\u9e67
I4785
sV\u7bea
I4786
sV\u626f
I4787
sV\u90f8
I4788
sV\u7c7b
I4789
sV\u7a7f
I4790
sV\u6500
I4791
sV\u558b
I4792
sV\u968d
I4793
sV\u9c91
I4794
sV\u5993
I4795
sV\u7b14
I4796
sV\u5520
I4797
sV\u85ab
I4798
sV\u6e32
I4799
sV\u7436
I4800
sV\u783e
I4801
sV\u73cf
I4802
sV\u504e
I4803
sV\u9b54
I4804
sV\u6f5c
I4805
sV\u94e1
I4806
sV\u5fe7
I4807
sV\u7968
I4808
sV\u6cf1
I4809
sV\u8e72
I4810
sV\u70f9
I4811
sV\u5178
I4812
sV\u7efd
I4813
sV\u5f7c
I4814
sV\u987e
I4815
sV\u6682
I4816
sV\u6c86
I4817
sV\u950b
I4818
sV\u708e
I4819
sV\u5c11
I4820
sV\u6717
I4821
sV\u8198
I4822
sV\u6d1b
I4823
sV\u8f9c
I4824
sV\u99a8
I4825
sV\u8c31
I4826
sV\u6bb4
I4827
sV\u71b8
I4828
sV\u9e3d
I4829
sV\u5b3f
I4830
sV\u6441
I4831
sV\u6849
I4832
sV\u57cc
I4833
sV\u90ce
I4834
sV\u9ed2
I4835
sV\u8757
I4836
sV\u8d5b
I4837
sV\u4e5d
I4838
sV\u9163
I4839
sV\u5265
I4840
sV\u636f
I4841
sV\u4ef2
I4842
sV\u8bf4
I4843
sV\u52fa
I4844
sV\u6600
I4845
sV\u6004
I4846
sV\u9995
I4847
sV\u7814
I4848
sV\u811a
I4849
sV\u6d9d
I4850
sV\u9522
I4851
sV\u7ba9
I4852
sV\u80af
I4853
sV\u6d32
I4854
sV\u7736
I4855
sV\u9ebb
I4856
sV\u4f46
I4857
sV\u534e
I4858
sV\u9854
I4859
sV\u6258
I4860
sV\u8ddd
I4861
sV\u6c5c
I4862
sV\u65ed
I4863
sV\u4e70
I4864
sV\u9776
I4865
sV\u960b
I4866
sV\u900f
I4867
sV\u738e
I4868
sV\u5f11
I4869
sV\u5915
I4870
sV\u8298
I4871
sV\u7c27
I4872
sV\u9aa8
I4873
sV\u59aa
I4874
sV\u64ac
I4875
sV\u8935
I4876
sV\u72b8
I4877
sV\u7cbc
I4878
sV\u6b49
I4879
sV\u89ca
I4880
sV\u54cc
I4881
sV\u7f51
I4882
sV\u8457
I4883
sV\u5761
I4884
sV\u75e2
I4885
sV\u5165
I4886
sV\u7fe6
I4887
sV\u5b69
I4888
sV\u84ec
I4889
sV\u606f
I4890
sV\u88f4
I4891
sV\u7477
I4892
sV\u51fa
I4893
sV\u8681
I4894
sV\u6700
I4895
sV\u8a89
I4896
sV\u578b
I4897
sV\u948d
I4898
sV\u5b93
I4899
sV\u5720
I4900
sV\u9422
I4901
sV\u9e26
I4902
sV\u87ab
I4903
sV\u622e
I4904
sV\u8bb3
I4905
sV\u6c32
I4906
sV\u52b9
I4907
sV\u6dc7
I4908
sV\u954c
I4909
sV\u9f50
I4910
sV\u7bd3
I4911
sV\u6d5c
I4912
sV\u53e3
I4913
sV\u7164
I4914
sV\u5de7
I4915
sV\u826e
I4916
sV\u4f70
I4917
sV\u68f5
I4918
sV\u9676
I4919
sV\u5378
I4920
sV\u9a7e
I4921
sV\u8303
I4922
sV\u6482
I4923
sV\u8d07
I4924
sV\u540d
I4925
sV\u5e11
I4926
sV\u9b13
I4927
sV\u7c92
I4928
sV\u5815
I4929
sV\u8398
I4930
sV\u691f
I4931
sV\u97a0
I4932
sV\u7d27
I4933
sV\u5ea6
I4934
sV\u8e31
I4935
sV\u69b4
I4936
sV\u5537
I4937
sV\u6641
I4938
sV\u5fd0
I4939
sV\u7855
I4940
sV\u59d4
I4941
sV\u60da
I4942
sV\u895f
I4943
sV\u74e2
I4944
sV\u5065
I4945
sV\u7ee6
I4946
sV\u8ff0
I4947
sV\u8981
I4948
sV\u6800
I4949
sV\u8f85
I4950
sV\u5e8f
I4951
sV\u6d99
I4952
sV\u5820
I4953
sV\u5428
I4954
sV\u88ab
I4955
sV\u8eaf
I4956
sV\u6d2e
I4957
sV\u6332
I4958
sV\u9ab7
I4959
sV\u90bb
I4960
sV\u7f3a
I4961
sV\u753e
I4962
sV\u8840
I4963
sV\u8e44
I4964
sV\u62c7
I4965
sV\u78cb
I4966
sV\u7ecf
I4967
sV\u9050
I4968
sV\u5352
I4969
sV\u95e9
I4970
sV\u9976
I4971
sV\u73fd
I4972
sV\u8c03
I4973
sV\u8c98
I4974
sV\u829c
I4975
sV\u661f
I4976
sV\u98a0
I4977
sV\u5ba2
I4978
sV\u94a8
I4979
sV\u6aac
I4980
sV\u8131
I4981
sV\u66b4
I4982
sV\u503b
I4983
sV\u563f
I4984
sV\u8bc2
I4985
sV\u4ec4
I4986
sV\u81c6
I4987
sV\u87ca
I4988
sV\u5acc
I4989
sV\u56d4
I4990
sV\u80f0
I4991
sV\u7a77
I4992
sV\u8881
I4993
sV\u8e85
I4994
sV\u9091
I4995
sV\u7110
I4996
sV\u8816
I4997
sV\u6c99
I4998
sV\u7ea5
I4999
sV\u9026
I5000
sV\u74a9
I5001
sV\u962a
I5002
sV\u6c2e
I5003
sV\u8548
I5004
sV\u79cb
I5005
sV\u5c4e
I5006
sV\u9150
I5007
sV\u635c
I5008
sV\u7960
I5009
sV\u94e9
I5010
sV\u8272
I5011
sV\u9876
I5012
sV\u7292
I5013
sV\u4e9a
I5014
sV\u671f
I5015
sV\u4f2f
I5016
sV\u5b37
I5017
sV\u6841
I5018
sV\u4fc4
I5019
sV\u80c6
I5020
sV\u86ca
I5021
sV\u5bcc
I5022
sV\u57d4
I5023
sV\u6eda
I5024
sV\u64de
I5025
sV\u70e6
I5026
sV\u696b
I5027
sV\u8bec
I5028
sV\u7b77
I5029
sV\u58f6
I5030
sV\u5efa
I5031
sV\u777f
I5032
sV\u8d85
I5033
sV\u998d
I5034
sV\u780c
I5035
sV\u5693
I5036
sV\u6f99
I5037
sV\u4e18
I5038
sV\u7ba1
I5039
sV\u5a20
I5040
sV\u5c24
I5041
sV\u77a9
I5042
sV\u51bd
I5043
sV\u94bf
I5044
sV\u60c7
I5045
sV\u7acb
I5046
sV\u8fd9
I5047
sV\u6e58
I5048
sV\u50e7
I5049
sV\u97e9
I5050
sV\u8f6e
I5051
sV\u5e78
I5052
sV\u6982
I5053
sV\u590d
I5054
sV\u7f8e
I5055
sV\u6817
I5056
sV\u621b
I5057
sV\u9aa0
I5058
sV\u9ca4
I5059
sV\u53a6
I5060
sV\u8331
I5061
sV\u8535
I5062
sV\u9f39
I5063
sV\u7eb8
I5064
sV\u523b
I5065
sV\u70bc
I5066
sV\u89c2
I5067
sV\u6d45
I5068
sV\u6749
I5069
sV\u52d0
I5070
sV\u54d4
I5071
sV\u8857
I5072
sV\u6bd6
I5073
sV\u4f59
I5074
sV\u9e63
I5075
sV\u5769
I5076
sV\u75ea
I5077
sV\u4fee
I5078
sV\u6673
I5079
sV\u7877
I5080
sV\u4f83
I5081
sV\u8c85
I5082
sV\u6d04
I5083
sV\u6708
I5084
sV\u5b8b
I5085
sV\u988d
I5086
sV\u5793
I5087
sV\u9495
I5088
sV\u4f18
I5089
sV\u8c1a
I5090
sV\u7ca5
I5091
sV\u5728
I5092
sV\u8bab
I5093
sV\u87b3
I5094
sV\u5eb9
I5095
sV\u763e
I5096
sV\u8d44
I5097
sV\u8748
I5098
sV\u9350
I5099
sV\u9554
I5100
sV\u6f58
I5101
sV\u80dd
I5102
sV\u7b60
I5103
sV\u7768
I5104
sV\u62f1
I5105
sV\u9a76
I5106
sV\u70fd
I5107
sV\u517c
I5108
sV\u5211
I5109
sV\u9713
I5110
sV\u7092
I5111
sV\u5415
I5112
sV\u8f98
I5113
sV\u631b
I5114
sV\u819c
I5115
sV\u97a8
I5116
sV\u54aa
I5117
sV\u8231
I5118
sV\u63b0
I5119
sV\u5937
I5120
sV\u9e39
I5121
sV\u7fb8
I5122
sV\u533b
I5123
sV\u553f
I5124
sV\u88c2
I5125
sV\u84ca
I5126
sV\u9ece
I5127
sV\u7455
I5128
sV\u55d4
I5129
sV\u4e59
I5130
sV\u5c65
I5131
sV\u5669
I5132
sV\u83f0
I5133
sV\u6773
I5134
sV\u7977
I5135
sV\u757f
I5136
sV\u56fe
I5137
sV\u8d81
I5138
sV\u7410
I5139
sV\u679d
I5140
sV\u9526
I5141
sV\u5028
I5142
sV\u59b9
I5143
sV\u94bb
I5144
sV\u7b3a
I5145
sV\u9e4c
I5146
sV\u594e
I5147
sV\u4ed7
I5148
sV\u56e7
I5149
sV\u65f1
I5150
sV\u77fd
I5151
sV\u567c
I5152
sV\u6f82
I5153
sV\u5511
I5154
sV\u7792
I5155
sV\u5315
I5156
sV\u6e17
I5157
sV\u869c
I5158
sV\u621f
I5159
sV\u9ca0
I5160
sV\u7823
I5161
sV\u9aa4
I5162
sV\u90a8
I5163
sV\u64b0
I5164
sV\u8335
I5165
sV\u5e37
I5166
sV\u543b
I5167
sV\u6d41
I5168
sV\u8fc2
I5169
sV\u83ca
I5170
sV\u7551
I5171
sV\u54d0
I5172
sV\u6dd6
I5173
sV\u845b
I5174
sV\u75e6
I5175
sV\u6073
I5176
sV\u82f4
I5177
sV\u5bfa
I5178
sV\u8089
I5179
sV\u6108
I5180
sV\u5d8b
I5181
sV\u5b8f
I5182
sV\u9e22
I5183
sV\u7aa5
I5184
sV\u4ead
I5185
sV\u8baf
I5186
sV\u81b3
I5187
sV\u69c3
I5188
sV\u4e42
I5189
sV\u8148
I5190
sV\u9550
I5191
sV\u4fd7
I5192
sV\u88d9
I5193
sV\u675c
I5194
sV\u59e3
I5195
sV\u7168
I5196
sV\u4f6c
I5197
sV\u886e
I5198
sV\u5978
I5199
sV\u577c
I5200
sV\u8707
I5201
sV\u628a
I5202
sV\u788e
I5203
sV\u5411
I5204
sV\u631f
I5205
sV\u54a6
I5206
sV\u52aa
I5207
sV\u8431
I5208
sV\u65b0
I5209
sV\u8235
I5210
sV\u63b4
I5211
sV\u533f
I5212
sV\u6c41
I5213
sV\u5fcc
I5214
sV\u98ce
I5215
sV\u96d2
I5216
sV\u53d4
I5217
sV\u835f
I5218
sV\u5c61
I5219
sV\u7ee2
I5220
sV\u74e6
I5221
sV\u6e00
I5222
sV\u6804
I5223
sV\u8389
I5224
sV\u6208
I5225
sV\u5e8b
I5226
sV\u7c0c
I5227
sV\u9791
I5228
sV\u891a
I5229
sV\u7fa1
I5230
sV\u5824
I5231
sV\u73a9
I5232
sV\u5228
I5233
sV\u8eab
I5234
sV\u82b3
I5235
sV\u9cb7
I5236
sV\u5bb9
I5237
sV\u793a
I5238
sV\u55bd
I5239
sV\u733e
I5240
sV\u9650
I5241
sV\u8bd9
I5242
sV\u6a58
I5243
sV\u5ae3
I5244
sV\u54e7
I5245
sV\u67f1
I5246
sV\u8572
I5247
sV\u61f5
I5248
sV\u997a
I5249
sV\u547c
I5250
sV\u4f01
I5251
sV\u6d82
I5252
sV\u849c
I5253
sV\u7a23
I5254
sV\u98a4
I5255
sV\u57a6
I5256
sV\u4e2b
I5257
sV\u8d2d
I5258
sV\u6cac
I5259
sV\u8731
I5260
sV\u60b4
I5261
sV\u7ab8
I5262
sV\u563b
I5263
sV\u4ec0
I5264
sV\u87c6
I5265
sV\u6349
I5266
sV\u81ca
I5267
sV\u7751
I5268
sV\u7155
I5269
sV\u5965
I5270
sV\u6e6b
I5271
sV\u86f0
I5272
sV\u6273
I5273
sV\u80f4
I5274
sV\u767b
I5275
sV\u94fc
I5276
sV\u707f
I5277
sV\u8e81
I5278
sV\u8885
I5279
sV\u6308
I5280
sV\u5f8b
I5281
sV\u9c8d
I5282
sV\u9095
I5283
sV\u821e
I5284
sV\u7ea1
I5285
sV\u5f20
I5286
sV\u8fab
I5287
sV\u83b3
I5288
sV\u783a
I5289
sV\u54bd
I5290
sV\u8944
I5291
sV\u84dd
I5292
sV\u6ced
I5293
sV\u7af9
I5294
sV\u987a
I5295
sV\u557c
I5296
sV\u4e01
I5297
sV\u6c82
I5298
sV\u9f0b
I5299
sV\u6d17
I5300
sV\u671b
I5301
sV\u859c
I5302
sV\u611f
I5303
sV\u4f2b
I5304
sV\u8c2d
I5305
sV\u67b0
I5306
sV\u7bb8
I5307
sV\u573b
I5308
sV\u75bc
I5309
sV\u513f
I5310
sV\u6845
I5311
sV\u86c6
I5312
sV\u6249
I5313
sV\u7c4d
I5314
sV\u68da
I5315
sV\u5e61
I5316
sV\u9567
I5317
sV\u5269
I5318
sV\u8dec
I5319
sV\u81f4
I5320
sV\u5ef6
I5321
sV\u52fe
I5322
sV\u9785
I5323
sV\u620c
I5324
sV\u8f95
I5325
sV\u6e14
I5326
sV\u7599
I5327
sV\u5a1c
I5328
sV\u67a5
I5329
sV\u6da9
I5330
sV\u9cb3
I5331
sV\u5fb5
I5332
sV\u82b7
I5333
sV\u673a
I5334
sV\u6d3e
I5335
sV\u9644
I5336
sV\u60cb
I5337
sV\u6cd3
I5338
sV\u87e5
I5339
sV\u6664
I5340
sV\u8de9
I5341
sV\u73ed
I5342
sV\u5e74
I5343
sV\u6bfd
I5344
sV\u800b
I5345
sV\u7f8a
I5346
sV\u8c13
I5347
sV\u6b92
I5348
sV\u579a
I5349
sV\u9a9c
I5350
sV\u80a0
I5351
sV\u86a4
I5352
sV\u4faa
I5353
sV\u72ac
I5354
sV\u78b0
I5355
sV\u64b8
I5356
sV\u93c2
I5357
sV\u634d
I5358
sV\u8bd2
I5359
sV\u4ed4
I5360
sV\u5b5d
I5361
sV\u8463
I5362
sV\u706b
I5363
sV\u7c73
I5364
sV\u6e7f
I5365
sV\u5583
I5366
sV\u9685
I5367
sV\u5b87
I5368
sV\u9c89
I5369
sV\u828d
I5370
sV\u6f14
I5371
sV\u9016
I5372
sV\u961a
I5373
sV\u7a9d
I5374
sV\u8222
I5375
sV\u8e2a
I5376
sV\u52ad
I5377
sV\u742e
I5378
sV\u5eb5
I5379
sV\u83b7
I5380
sV\u663a
I5381
sV\u5242
I5382
sV\u7bc7
I5383
sV\u61cb
I5384
sV\u67cf
I5385
sV\u53d7
I5386
sV\u80e1
I5387
sV\u72ed
I5388
sV\u7ef5
I5389
sV\u9503
I5390
sV\u5c09
I5391
sV\u4e15
I5392
sV\u7f1f
I5393
sV\u6b27
I5394
sV\u9e35
I5395
sV\u51c0
I5396
sV\u624d
I5397
sV\u6851
I5398
sV\u9357
I5399
sV\u5459
I5400
sV\u62e2
I5401
sV\u54ee
I5402
sV\u6377
I5403
sV\u7200
I5404
sV\u9f89
I5405
sV\u4e93
I5406
sV\u6c14
I5407
sV\u5618
I5408
sV\u951a
I5409
sV\u65a5
I5410
sV\u8b26
I5411
sV\u4e28
I5412
sV\u8d2a
I5413
sV\u94af
I5414
sV\u6f3e
I5415
sV\u9e48
I5416
sV\u804c
I5417
sV\u6ed3
I5418
sV\u83e1
I5419
sV\u8fe9
I5420
sV\u506c
I5421
sV\u7bf1
I5422
sV\u9972
I5423
sV\u69fd
I5424
sV\u8f7e
I5425
sV\u9698
I5426
sV\u989c
I5427
sV\u522b
I5428
sV\u70ac
I5429
sV\u542f
I5430
sV\u7545
I5431
sV\u54c4
I5432
sV\u89d2
I5433
sV\u9057
I5434
sV\u4f69
I5435
sV\u86f8
I5436
sV\u4ffe
I5437
sV\u5783
I5438
sV\u7504
I5439
sV\u5987
I5440
sV\u7f08
I5441
sV\u7699
I5442
sV\u591c
I5443
sV\u62a1
I5444
sV\u8c2a
I5445
sV\u643a
I5446
sV\u8dbf
I5447
sV\u5a46
I5448
sV\u5c4a
I5449
sV\u814c
I5450
sV\u65cf
I5451
sV\u6fd3
I5452
sV\u8d54
I5453
sV\u82e1
I5454
sV\u84e5
I5455
sV\u70ed
I5456
sV\u516c
I5457
sV\u5b70
I5458
sV\u5d74
I5459
sV\u66f9
I5460
sV\u847a
I5461
sV\u5201
I5462
sV\u668e
I5463
sV\u7117
I5464
sV\u9798
I5465
sV\u7b1b
I5466
sV\u549a
I5467
sV\u5e9e
I5468
sV\u83a0
I5469
sV\u8fa8
I5470
sV\u71ac
I5471
sV\u552f
I5472
sV\u7bb0
I5473
sV\u67b8
I5474
sV\u7445
I5475
sV\u9cca
I5476
sV\u604d
I5477
sV\u86ce
I5478
sV\u6c55
I5479
sV\u9157
I5480
sV\u5659
I5481
sV\u7ede
I5482
sV\u8763
I5483
sV\u6cea
I5484
sV\u6177
I5485
sV\u6b7b
I5486
sV\u5e87
I5487
sV\u878d
I5488
sV\u660c
I5489
sV\u6c10
I5490
sV\u7199
I5491
sV\u5018
I5492
sV\u5e1c
I5493
sV\u65a1
I5494
sV\u8722
I5495
sV\u63a5
I5496
sV\u8d26
I5497
sV\u94ab
I5498
sV\u57ad
I5499
sV\u5bb5
I5500
sV\u6536
I5501
sV\u633a
I5502
sV\u70c3
I5503
sV\u5742
I5504
sV\u9244
I5505
sV\u7ec7
I5506
sV\u56d7
I5507
sV\u6868
I5508
sV\u77ed
I5509
sV\u566c
I5510
sV\u916e
I5511
sV\u5a74
I5512
sV\u5501
I5513
sV\u9003
I5514
sV\u5305
I5515
sV\u618e
I5516
sV\u8813
I5517
sV\u539a
I5518
sV\u599e
I5519
sV\u542b
I5520
sV\u972d
I5521
sV\u60b8
I5522
sV\u54c0
I5523
sV\u7949
I5524
sV\u6d51
I5525
sV\u5f5d
I5526
sV\u67e2
I5527
sV\u6de6
I5528
sV\u726f
I5529
sV\u80f8
I5530
sV\u5f87
I5531
sV\u9889
I5532
sV\u868d
I5533
sV\u7099
I5534
sV\u62a5
I5535
sV\u8c26
I5536
sV\u5cb1
I5537
sV\u8bbf
I5538
sV\u683e
I5539
sV\u9540
I5540
sV\u71c3
I5541
sV\u65cb
I5542
sV\u5a4a
I5543
sV\u874c
I5544
sV\u63cf
I5545
sV\u8d50
I5546
sV\u4e52
I5547
sV\u57d7
I5548
sV\u9edd
I5549
sV\u5bdf
I5550
sV\u82e5
I5551
sV\u576c
I5552
sV\u906e
I5553
sV\u60f9
I5554
sV\u827a
I5555
sV\u4f7c
I5556
sV\u887e
I5557
sV\u5401
I5558
sV\u7682
I5559
sV\u830f
I5560
sV\u8913
I5561
sV\u5496
I5562
sV\u7b1f
I5563
sV\u589e
I5564
sV\u6123
I5565
sV\u77ac
I5566
sV\u7bb4
I5567
sV\u7441
I5568
sV\u80ce
I5569
sV\u8f67
I5570
sV\u97ec
I5571
sV\u50ee
I5572
sV\u6777
I5573
sV\u7600
I5574
sV\u9185
I5575
sV\u8f91
I5576
sV\u6e10
I5577
sV\u9716
I5578
sV\u5218
I5579
sV\u892a
I5580
sV\u90af
I5581
sV\u732e
I5582
sV\u6b3e
I5583
sV\u9640
I5584
sV\u9044
I5585
sV\u8854
I5586
sV\u54d7
I5587
sV\u6064
I5588
sV\u8be9
I5589
sV\u7ff1
I5590
sV\u8776
I5591
sV\u817a
I5592
sV\u5b09
I5593
sV\u798a
I5594
sV\u4f11
I5595
sV\u9c9c
I5596
sV\u781f
I5597
sV\u5b9e
I5598
sV\u80a4
I5599
sV\u6c27
I5600
sV\u4fa6
I5601
sV\u952d
I5602
sV\u9f31
I5603
sV\u7eb0
I5604
sV\u78b4
I5605
sV\u8339
I5606
sV\u4e3b
I5607
sV\u8d3d
I5608
sV\u6cbc
I5609
sV\u7741
I5610
sV\u7145
I5611
sV\u7b49
I5612
sV\u71da
I5613
sV\u65e2
I5614
sV\u766b
I5615
sV\u94ec
I5616
sV\u706f
I5617
sV\u53ee
I5618
sV\u5df2
I5619
sV\u7700
I5620
sV\u9a89
I5621
sV\u7b08
I5622
sV\u9616
I5623
sV\u901a
I5624
sV\u7c9d
I5625
sV\u54ad
I5626
sV\u91af
I5627
sV\u85b7
I5628
sV\u6636
I5629
sV\u8fbb
I5630
sV\u6a3e
I5631
sV\u6bd3
I5632
sV\u9cdd
I5633
sV\u6760
I5634
sV\u80e5
I5635
sV\u556c
I5636
sV\u5f70
I5637
sV\u9c72
I5638
sV\u5974
I5639
sV\u6cfd
I5640
sV\u5a09
I5641
sV\u810f
I5642
sV\u4e11
I5643
sV\u7f1b
I5644
sV\u509a
I5645
sV\u5a9e
I5646
sV\u6323
I5647
sV\u6d27
I5648
sV\u4ea6
I5649
sV\u8ba8
I5650
sV\u8239
I5651
sV\u63b8
I5652
sV\u94c2
I5653
sV\u51c4
I5654
sV\u82ce
I5655
sV\u4fd0
I5656
sV\u76d6
I5657
sV\u7ade
I5658
sV\u8363
I5659
sV\u64e2
I5660
sV\u8d67
I5661
sV\u6ee6
I5662
sV\u776b
I5663
sV\u68ea
I5664
sV\u6577
I5665
sV\u9981
I5666
sV\u7800
I5667
sV\u9f85
I5668
sV\u4e8f
I5669
sV\u6614
I5670
sV\u5c18
I5671
sV\u4e24
I5672
sV\u65a9
I5673
sV\u94b3
I5674
sV\u57b5
I5675
sV\u653e
I5676
sV\u9e44
I5677
sV\u5146
I5678
sV\u68cb
I5679
sV\u574a
I5680
sV\u6ecf
I5681
sV\u8654
I5682
sV\u6860
I5683
sV\u8fe5
I5684
sV\u85e9
I5685
sV\u6df9
I5686
sV\u63fd
I5687
sV\u857e
I5688
sV\u5509
I5689
sV\u8e0f
I5690
sV\u6d8e
I5691
sV\u6392
I5692
sV\u5996
I5693
sV\u701b
I5694
sV\u761f
I5695
sV\u84a8
I5696
sV\u9131
I5697
sV\u76b4
I5698
sV\u8d39
I5699
sV\u6cb8
I5700
sV\u62bc
I5701
sV\u7941
I5702
sV\u7f45
I5703
sV\u91c6
I5704
sV\u54c8
I5705
sV\u8dce
I5706
sV\u6151
I5707
sV\u905b
I5708
sV\u7fda
I5709
sV\u965f
I5710
sV\u75de
I5711
sV\u61e6
I5712
sV\u786b
I5713
sV\u5dee
I5714
sV\u53f2
I5715
sV\u607b
I5716
sV\u4ffa
I5717
sV\u9881
I5718
sV\u7f04
I5719
sV\u9489
I5720
sV\u4f8f
I5721
sV\u8695
I5722
sV\u6714
I5723
sV\u6ea5
I5724
sV\u4f24
I5725
sV\u8026
I5726
sV\u64a9
I5727
sV\u7232
I5728
sV\u8bb7
I5729
sV\u81bb
I5730
sV\u6e3a
I5731
sV\u8150
I5732
sV\u9cd9
I5733
sV\u51db
I5734
sV\u57df
I5735
sV\u6960
I5736
sV\u7aed
I5737
sV\u5b6c
I5738
sV\u5170
I5739
sV\u62fd
I5740
sV\u5e05
I5741
sV\u5409
I5742
sV\u8513
I5743
sV\u6292
I5744
sV\u5e9a
I5745
sV\u771f
I5746
sV\u592b
I5747
sV\u7bac
I5748
sV\u5f2f
I5749
sV\u5533
I5750
sV\u9635
I5751
sV\u6db8
I5752
sV\u63bc
I5753
sV\u82d2
I5754
sV\u6655
I5755
sV\u7eda
I5756
sV\u8d63
I5757
sV\u8367
I5758
sV\u60e6
I5759
sV\u677f
I5760
sV\u7a00
I5761
sV\u5e83
I5762
sV\u680c
I5763
sV\u6210
I5764
sV\u6414
I5765
sV\u5e18
I5766
sV\u501c
I5767
sV\u971e
I5768
sV\u6ba1
I5769
sV\u7f2e
I5770
sV\u55b5
I5771
sV\u6d3a
I5772
sV\u84bf
I5773
sV\u7ec3
I5774
sV\u5942
I5775
sV\u9648
I5776
sV\u554a
I5777
sV\u884c
I5778
sV\u4f4e
I5779
sV\u705c
I5780
sV\u54df
I5781
sV\u8be1
I5782
sV\u4ee3
I5783
sV\u6c64
I5784
sV\u6668
I5785
sV\u79ed
I5786
sV\u586c
I5787
sV\u877e
I5788
sV\u8c0f
I5789
sV\u6f8e
I5790
sV\u7817
I5791
sV\u6e23
I5792
sV\u6027
I5793
sV\u5c2f
I5794
sV\u72b0
I5795
sV\u9535
I5796
sV\u60bc
I5797
sV\u5cc4
I5798
sV\u8fce
I5799
sV\u6555
I5800
sV\u6877
I5801
sV\u80fc
I5802
sV\u9a81
I5803
sV\u7b00
I5804
sV\u9c85
I5805
sV\u5187
I5806
sV\u7708
I5807
sV\u888d
I5808
sV\u5f18
I5809
sV\u8822
I5810
sV\u6ca5
I5811
sV\u52b1
I5812
sV\u663e
I5813
sV\u7fc3
I5814
sV\u6bcb
I5815
sV\u544a
I5816
sV\u6dcf
I5817
sV\u4e4e
I5818
sV\u8350
I5819
sV\u67d3
I5820
sV\u59d7
I5821
sV\u9ed9
I5822
sV\u7f58
I5823
sV\u53db
I5824
sV\u90dd
I5825
sV\u715c
I5826
sV\u55df
I5827
sV\u4fe3
I5828
sV\u6768
I5829
sV\u596c
I5830
sV\u9e6e
I5831
sV\u72f1
I5832
sV\u5370
I5833
sV\u8c7a
I5834
sV\u867e
I5835
sV\u5a01
I5836
sV\u5609
I5837
sV\u8713
I5838
sV\u731b
I5839
sV\u5c9a
I5840
sV\u751f
I5841
sV\u6127
I5842
sV\u87a8
I5843
sV\u5d2f
I5844
sV\u73b0
I5845
sV\u5733
I5846
sV\u75b4
I5847
sV\u8e39
I5848
sV\u803d
I5849
sV\u92c6
I5850
sV\u94ca
I5851
sV\u6251
I5852
sV\u7ad6
I5853
sV\u5e59
I5854
sV\u955f
I5855
sV\u62e6
I5856
sV\u95f4
I5857
sV\u6977
I5858
sV\u8ff8
I5859
sV\u637b
I5860
sV\u81fc
I5861
sV\u5883
I5862
sV\u9189
I5863
sV\u8f8d
I5864
sV\u6410
I5865
sV\u911e
I5866
sV\u6da1
I5867
sV\u61a9
I5868
sV\u9cab
I5869
sV\u55b1
I5870
sV\u90b3
I5871
sV\u6b3a
I5872
sV\u5546
I5873
sV\u534a
I5874
sV\u765c
I5875
sV\u52df
I5876
sV\u6c60
I5877
sV\u8be5
I5878
sV\u6068
I5879
sV\u996e
I5880
sV\u75f1
I5881
sV\u73f5
I5882
sV\u8d76
I5883
sV\u817e
I5884
sV\u5d01
I5885
sV\u5b05
I5886
sV\u7586
I5887
sV\u8c0b
I5888
sV\u4f0d
I5889
sV\u698e
I5890
sV\u9898
I5891
sV\u741b
I5892
sV\u5b9a
I5893
sV\u969c
I5894
sV\u6627
I5895
sV\u7eac
I5896
sV\u9531
I5897
sV\u5ac4
I5898
sV\u6f4d
I5899
sV\u89ce
I5900
sV\u6551
I5901
sV\u87d2
I5902
sV\u6355
I5903
sV\u575d
I5904
sV\u8863
I5905
sV\u65e6
I5906
sV\u63ea
I5907
sV\u94f0
I5908
sV\u88f8
I5909
sV\u627f
I5910
sV\u9c81
I5911
sV\u5983
I5912
sV\u9a85
I5913
sV\u571c
I5914
sV\u901e
I5915
sV\u6ca1
I5916
sV\u8e22
I5917
sV\u8426
I5918
sV\u822a
I5919
sV\u5ead
I5920
sV\u54b1
I5921
sV\u52b5
I5922
sV\u79c3
I5923
sV\u5e42
I5924
sV\u9b44
I5925
sV\u5446
I5926
sV\u6dcb
I5927
sV\u524a
I5928
sV\u6bcf
I5929
sV\u8354
I5930
sV\u5fd7
I5931
sV\u98d9
I5932
sV\u53df
I5933
sV\u6d60
I5934
sV\u6b64
I5935
sV\u6168
I5936
sV\u7eed
I5937
sV\u5f6c
I5938
sV\u5570
I5939
sV\u9672
I5940
sV\u5374
I5941
sV\u68f9
I5942
sV\u66fd
I5943
sV\u5c01
I5944
sV\u7e82
I5945
sV\u5a05
I5946
sV\u9707
I5947
sV\u728a
I5948
sV\u4e0d
I5949
sV\u8113
I5950
sV\u5c96
I5951
sV\u5a9a
I5952
sV\u4ea2
I5953
sV\u8ba4
I5954
sV\u81a8
I5955
sV\u9e2d
I5956
sV\u8839
I5957
sV\u7c41
I5958
sV\u5bc4
I5959
sV\u94c6
I5960
sV\u6e4d
I5961
sV\u7cd6
I5962
sV\u955b
I5963
sV\u6ee2
I5964
sV\u64e6
I5965
sV\u58ee
I5966
sV\u95f0
I5967
sV\u7173
I5968
sV\u9985
I5969
sV\u4e8b
I5970
sV\u6014
I5971
sV\u5a18
I5972
sV\u759d
I5973
sV\u6fa1
I5974
sV\u8d22
I5975
sV\u63a9
I5976
sV\u57b1
I5977
sV\u7532
I5978
sV\u51b5
I5979
sV\u80bf
I5980
sV\u6ecb
I5981
sV\u8c4c
I5982
sV\u8650
I5983
sV\u62d3
I5984
sV\u8054
I5985
sV\u56db
I5986
sV\u745c
I5987
sV\u89e5
I5988
sV\u83e9
I5989
sV\u8f76
I5990
sV\u5f01
I5991
sV\u718a
I5992
sV\u949c
I5993
sV\u88a4
I5994
sV\u6427
I5995
sV\u82a8
I5996
sV\u7cac
I5997
sV\u853d
I5998
sV\u64bc
I5999
sV\u91ca
I6000
sV\u6751
I6001
sV\u6155
I6002
sV\u5b59
I6003
sV\u965b
I6004
sV\u73de
I6005
sV\u67e6
I6006
sV\u5bee
I6007
sV\u55f2
I6008
sV\u90f4
I6009
sV\u84fc
I6010
sV\u607f
I6011
sV\u7f00
I6012
sV\u5b83
I6013
sV\u9885
I6014
sV\u5587
I6015
sV\u4f8b
I6016
sV\u6d0c
I6017
sV\u4f20
I6018
sV\u8c22
I6019
sV\u5cad
I6020
sV\u623e
I6021
sV\u5c42
I6022
sV\u75c7
I6023
sV\u8d4c
I6024
sV\u8154
I6025
sV\u9ad9
I6026
sV\u94dd
I6027
sV\u755c
I6028
sV\u5d6c
I6029
sV\u9a6e
I6030
sV\u76f1
I6031
sV\u5174
I6032
sV\u8e76
I6033
sV\u827e
I6034
sV\u5e01
I6035
sV\u9b03
I6036
sV\u7686
I6037
sV\u708a
I6038
sV\u6a8e
I6039
sV\u6492
I6040
sV\u5e96
I6041
sV\u529e
I6042
sV\u6b23
I6043
sV\u83a8
I6044
sV\u592f
I6045
sV\u9631
I6046
sV\u77b0
I6047
sV\u9035
I6048
sV\u843d
I6049
sV\u65bc
I6050
sV\u7e41
I6051
sV\u7845
I6052
sV\u96c6
I6053
sV\u53c8
I6054
sV\u90ca
I6055
sV\u6055
I6056
sV\u975b
I6057
sV\u72de
I6058
sV\u4e61
I6059
sV\u6ce2
I6060
sV\u66e6
I6061
sV\u796f
I6062
sV\u54f2
I6063
sV\u6d77
I6064
sV\u4ef6
I6065
sV\u8bf8
I6066
s.