(dp1
S''
I0
sV\u8000
I1
sV\u6d89
I2
sV\u8c08
I3
sV\u4f0a
I4
sV\u4e9f
I5
sV\u6d1e
I6
sV\u54a3
I7
sV\u7322
I8
sV\u7f2a
I9
sV\u6cb3
I10
sV\u4e34
I11
sV\u72b7
I12
sV\u5438
I13
sV\u5a3c
I14
sV\u7ebf
I15
sV\u53cd
I16
sV\u724c
I17
sV\u96cf
I18
sV\u59d1
I19
sV\u5362
I20
sV\u77e5
I21
sV\u9664
I22
sV\u5f6a
I23
sV\u95f9
I24
sV\u5eff
I25
sV\u8986
I26
sV\u8f8a
I27
sV\u5e94
I28
sV\u8e1f
I29
sV\u5121
I30
sV\u5d29
I31
sV\u82ac
I32
sV\u51b6
I33
sV\u9abc
I34
sV\u8d49
I35
sV\u6e5f
I36
sV\u56e4
I37
sV\u5ce8
I38
sV\u62ec
I39
sV\u68f0
I40
sV\u6ef4
I41
sV\u987b
I42
sV\u5b7d
I43
sV\u9e7f
I44
sV\u6c89
I45
sV\u4e0a
I46
sV\u540e
I47
sV\u7891
I48
sV\u9910
I49
sV\u6016
I50
sV\u8499
I51
sV\u90a1
I52
sV\u67af
I53
sV\u4f34
I54
sV\u73b7
I55
sV\u9036
I56
sV\u79bb
I57
sV\u7fbf
I58
sV\u58d1
I59
sV\u7f54
I60
sV\u76e5
I61
sV\u88f1
I62
sV\u53f7
I63
sV\u7076
I64
sV\u59fb
I65
sV\u5fff
I66
sV\u8282
I67
sV\u538c
I68
sV\u948e
I69
sV\u8317
I70
sV\u891b
I71
sV\u5021
I72
sV\u71a0
I73
sV\u9523
I74
sV\u7a3d
I75
sV\u62c2
I76
sV\u8c49
I77
sV\u514b
I78
sV\u574f
I79
sV\u9e55
I80
sV\u80d6
I81
sV\u51e0
I82
sV\u5de8
I83
sV\u8d73
I84
sV\u9f7f
I85
sV\u8200
I86
sV\u8404
I87
sV\u6316
I88
sV\u56a3
I89
sV\u7b26
I90
sV\u62ab
I91
sV\u70b7
I92
sV\u953a
I93
sV\u9f3e
I94
sV\u6240
I95
sV\u6444
I96
sV\u704c
I97
sV\u67d9
I98
sV\u4f5e
I99
sV\u5162
I100
sV\u5b66
I101
sV\u7fe9
I102
sV\u81ed
I103
sV\u8bf1
I104
sV\u4ef3
I105
sV\u8df5
I106
sV\u6807
I107
sV\u4e88
I108
sV\u8d8a
I109
sV\u740f
I110
sV\u9992
I111
sV\u5c94
I112
sV\u8017
I113
sV\u8c1f
I114
sV\u5321
I115
sV\u5f29
I116
sV\u7ea8
I117
sV\u6d35
I118
sV\u61c2
I119
sV\u914d
I120
sV\u9b51
I121
sV\u79d2
I122
sV\u83d6
I123
sV\u6c5f
I124
sV\u8fde
I125
sV\u7663
I126
sV\u60ec
I127
sV\u76f8
I128
sV\u9a7b
I129
sV\u597d
I130
sV\u9c7f
I131
sV\u6485
I132
sV\u6e89
I133
sV\u560e
I134
sV\u7a91
I135
sV\u7c95
I136
sV\u6216
I137
sV\u57a3
I138
sV\u94a5
I139
sV\u7c2a
I140
sV\u65af
I141
sV\u6fb3
I142
sV\u9e3e
I143
sV\u714c
I144
sV\u7b50
I145
sV\u66d9
I146
sV\u4e5e
I147
sV\u72e1
I148
sV\u7ee9
I149
sV\u80ed
I150
sV\u666e
I151
sV\u4ff3
I152
sV\u96f9
I153
sV\u5bfb
I154
sV\u4f88
I155
sV\u518c
I156
sV\u7f13
I157
sV\u699c
I158
sV\u8d1f
I159
sV\u75a4
I160
sV\u6a31
I161
sV\u8bb0
I162
sV\u8db4
I163
sV\u5ebe
I164
sV\u8e49
I165
sV\u6cca
I166
sV\u904d
I167
sV\u76ce
I168
sV\u5f53
I169
sV\u53e0
I170
sV\u7763
I171
sV\u55e4
I172
sV\u9ae6
I173
sV\u836b
I174
sV\u9177
I175
sV\u77f8
I176
sV\u6989
I177
sV\u7b95
I178
sV\u631a
I179
sV\u50a3
I180
sV\u5ea7
I181
sV\u7b2a
I182
sV\u68b3
I183
sV\u9536
I184
sV\u5e3c
I185
sV\u7abf
I186
sV\u80c3
I187
sV\u6848
I188
sV\u94cb
I189
sV\u764c
I190
sV\u98d3
I191
sV\u8058
I192
sV\u73e5
I193
sV\u79e9
I194
sV\u5b6a
I195
sV\u8bf5
I196
sV\u5cfb
I197
sV\u8782
I198
sV\u5c90
I199
sV\u8c1b
I200
sV\u6e9c
I201
sV\u5929
I202
sV\u672d
I203
sV\u86ac
I204
sV\u6d31
I205
sV\u90b8
I206
sV\u59be
I207
sV\u6dc6
I208
sV\u544b
I209
sV\u71ce
I210
sV\u6657
I211
sV\u6c5b
I212
sV\u89de
I213
sV\u52e4
I214
sV\u846b
I215
sV\u826f
I216
sV\u6cf0
I217
sV\u9677
I218
sV\u5179
I219
sV\u7efc
I220
sV\u9a7f
I221
sV\u8304
I222
sV\u7c91
I223
sV\u7a95
I224
sV\u621a
I225
sV\u94a1
I226
sV\u7622
I227
sV\u5f3c
I228
sV\u81c3
I229
sV\u8fc7
I230
sV\u7b54
I231
sV\u5662
I232
sV\u9968
I233
sV\u5a6a
I234
sV\u86ed
I235
sV\u7476
I236
sV\u727a
I237
sV\u5bff
I238
sV\u8682
I239
sV\u8a8a
I240
sV\u9e92
I241
sV\u8717
I242
sV\u4e1d
I243
sV\u6f9c
I244
sV\u5421
I245
sV\u662d
I246
sV\u4eb2
I247
sV\u6a35
I248
sV\u8bb4
I249
sV\u7039
I250
sV\u964d
I251
sV\u534f
I252
sV\u7ed2
I253
sV\u84d6
I254
sV\u53e4
I255
sV\u59e8
I256
sV\u67ec
I257
sV\u836f
I258
sV\u5e7d
I259
sV\u7ffc
I260
sV\u6781
I261
sV\u8004
I262
sV\u6b89
I263
sV\u4e9b
I264
sV\u611a
I265
sV\u52a3
I266
sV\u60af
I267
sV\u4e30
I268
sV\u8d32
I269
sV\u5238
I270
sV\u5c3c
I271
sV\u5fd1
I272
sV\u9ad3
I273
sV\u8258
I274
sV\u71e5
I275
sV\u5f66
I276
sV\u636e
I277
sV\u7b7e
I278
sV\u8f86
I279
sV\u548c
I280
sV\u5e90
I281
sV\u6298
I282
sV\u7aa8
I283
sV\u6f31
I284
sV\u9cbc
I285
sV\u5bbe
I286
sV\u954d
I287
sV\u504f
I288
sV\u9f51
I289
sV\u9955
I290
sV\u6e5b
I291
sV\u8bde
I292
sV\u56e0
I293
sV\u866b
I294
sV\u72f8
I295
sV\u987f
I296
sV\u8700
I297
sV\u950c
I298
sV\u520e
I299
sV\u9f10
I300
sV\u8299
I301
sV\u4f9b
I302
sV\u7422
I303
sV\u67ab
I304
sV\u4f30
I305
sV\u8c32
I306
sV\u9636
I307
sV\u6740
I308
sV\u54cd
I309
sV\u754c
I310
sV\u91cf
I311
sV\u7f50
I312
sV\u58d5
I313
sV\u62d9
I314
sV\u9760
I315
sV\u5462
I316
sV\u626e
I317
sV\u6c72
I318
sV\u55f7
I319
sV\u5ffb
I320
sV\u59ff
I321
sV\u8482
I322
sV\u770b
I323
sV\u5f90
I324
sV\u8517
I325
sV\u6398
I326
sV\u77a0
I327
sV\u5025
I328
sV\u5a29
I329
sV\u642d
I330
sV\u8fb0
I331
sV\u7239
I332
sV\u5abe
I333
sV\u64c2
I334
sV\u72ce
I335
sV\u9e51
I336
sV\u5b53
I337
sV\u80da
I338
sV\u57e0
I339
sV\u94e2
I340
sV\u51e4
I341
sV\u5be8
I342
sV\u65ec
I343
sV\u4e71
I344
sV\u997f
I345
sV\u7b8d
I346
sV\u5d0e
I347
sV\u9010
I348
sV\u9614
I349
sV\u7126
I350
sV\u6eaf
I351
sV\u8d2e
I352
sV\u5c38
I353
sV\u76bf
I354
sV\u953e
I355
sV\u6840
I356
sV\u6e44
I357
sV\u82c7
I358
sV\u6448
I359
sV\u9ecf
I360
sV\u51d1
I361
sV\u57d5
I362
sV\u7654
I363
sV\u6dd9
I364
sV\u4f5a
I365
sV\u5b62
I366
sV\u9e64
I367
sV\u576a
I368
sV\u8bed
I369
sV\u6d6e
I370
sV\u50fb
I371
sV\u56ff
I372
sV\u5f25
I373
sV\u7ea4
I374
sV\u74a8
I375
sV\u6735
I376
sV\u86b4
I377
sV\u9cb8
I378
sV\u8941
I379
sV\u6bc2
I380
sV\u8549
I381
sV\u9b4d
I382
sV\u5453
I383
sV\u665f
I384
sV\u7267
I385
sV\u54e8
I386
sV\u886b
I387
sV\u97ea
I388
sV\u60f0
I389
sV\u8473
I390
sV\u66f4
I391
sV\u9a77
I392
sV\u7cf8
I393
sV\u72fc
I394
sV\u6881
I395
sV\u6e85
I396
sV\u7a8d
I397
sV\u5212
I398
sV\u6816
I399
sV\u6e1a
I400
sV\u829d
I401
sV\u641e
I402
sV\u94a9
I403
sV\u69ab
I404
sV\u762a
I405
sV\u77bf
I406
sV\u8dc3
I407
sV\u4ec5
I408
sV\u83c7
I409
sV\u6548
I410
sV\u8d58
I411
sV\u835c
I412
sV\u5a62
I413
sV\u7ee5
I414
sV\u9568
I415
sV\u566a
I416
sV\u4fef
I417
sV\u80f1
I418
sV\u51fb
I419
sV\u747e
I420
sV\u4f84
I421
sV\u6307
I422
sV\u8086
I423
sV\u868a
I424
sV\u5b8c
I425
sV\u9c8e
I426
sV\u5821
I427
sV\u7fa4
I428
sV\u5429
I429
sV\u6635
I430
sV\u723d
I431
sV\u60c6
I432
sV\u594b
I433
sV\u9051
I434
sV\u72d2
I435
sV\u9655
I436
sV\u675f
I437
sV\u5fe4
I438
sV\u90e6
I439
sV\u55e8
I440
sV\u96ea
I441
sV\u8f6f
I442
sV\u67f4
I443
sV\u5c79
I444
sV\u527d
I445
sV\u6b81
I446
sV\u8a00
I447
sV\u6d85
I448
sV\u8c04
I449
sV\u6789
I450
sV\u7391
I451
sV\u5112
I452
sV\u8f99
I453
sV\u819d
I454
sV\u50a7
I455
sV\u6aab
I456
sV\u8132
I457
sV\u5e38
I458
sV\u503c
I459
sV\u973e
I460
sV\u9acb
I461
sV\u784c
I462
sV\u9ccf
I463
sV\u53d1
I464
sV\u7be1
I465
sV\u5962
I466
sV\u5366
I467
sV\u77e9
I468
sV\u9668
I469
sV\u556a
I470
sV\u6f6e
I471
sV\u83f1
I472
sV\u777e
I473
sV\u8386
I474
sV\u7a0b
I475
sV\u9192
I476
sV\u5494
I477
sV\u4f19
I478
sV\u6e98
I479
sV\u821b
I480
sV\u7aa0
I481
sV\u9e23
I482
sV\u7ca4
I483
sV\u5729
I484
sV\u692d
I485
sV\u4fae
I486
sV\u5bb6
I487
sV\u9eb8
I488
sV\u4e43
I489
sV\u8d45
I490
sV\u63c6
I491
sV\u8749
I492
sV\u5c4f
I493
sV\u7fce
I494
sV\u4ed8
I495
sV\u625b
I496
sV\u8dda
I497
sV\u95ea
I498
sV\u9877
I499
sV\u5f79
I500
sV\u7ef8
I501
sV\u517d
I502
sV\u6c85
I503
sV\u8708
I504
sV\u788d
I505
sV\u5012
I506
sV\u6c1a
I507
sV\u809d
I508
sV\u9aa1
I509
sV\u742a
I510
sV\u6daf
I511
sV\u8e2e
I512
sV\u67b3
I513
sV\u73bb
I514
sV\u6748
I515
sV\u7554
I516
sV\u6e6e
I517
sV\u82f1
I518
sV\u7a76
I519
sV\u53fb
I520
sV\u90fd
I521
sV\u767e
I522
sV\u8882
I523
sV\u7b0b
I524
sV\u5594
I525
sV\u4e19
I526
sV\u831b
I527
sV\u4eae
I528
sV\u4f43
I529
sV\u68c2
I530
sV\u62c6
I531
sV\u7ece
I532
sV\u4fd8
I533
sV\u86de
I534
sV\u7167
I535
sV\u94ea
I536
sV\u9977
I537
sV\u957f
I538
sV\u8c00
I539
sV\u7591
I540
sV\u7f22
I541
sV\u6cab
I542
sV\u732a
I543
sV\u7eb7
I544
sV\u6c40
I545
sV\u6a44
I546
sV\u86c7
I547
sV\u5fcd
I548
sV\u55d1
I549
sV\u90d3
I550
sV\u5f62
I551
sV\u5566
I552
sV\u9068
I553
sV\u8fed
I554
sV\u696e
I555
sV\u5ef7
I556
sV\u52ff
I557
sV\u7c0b
I558
sV\u5490
I559
sV\u821f
I560
sV\u8eac
I561
sV\u96bc
I562
sV\u8d41
I563
sV\u6fc2
I564
sV\u5c4b
I565
sV\u9551
I566
sV\u8dd6
I567
sV\u8bda
I568
sV\u8c6b
I569
sV\u62f4
I570
sV\u5979
I571
sV\u76fc
I572
sV\u6c81
I573
sV\u6089
I574
sV\u9510
I575
sV\u4f97
I576
sV\u6c16
I577
sV\u869d
I578
sV\u9aa5
I579
sV\u7426
I580
sV\u722a
I581
sV\u5938
I582
sV\u903e
I583
sV\u6148
I584
sV\u54d1
I585
sV\u66dd
I586
sV\u5e62
I587
sV\u7ae5
I588
sV\u5466
I589
sV\u70e9
I590
sV\u526a
I591
sV\u7a7a
I592
sV\u707e
I593
sV\u828a
I594
sV\u7b0f
I595
sV\u679c
I596
sV\u5a25
I597
sV\u5029
I598
sV\u71a8
I599
sV\u6e2d
I600
sV\u85b0
I601
sV\u83b4
I602
sV\u8c41
I603
sV\u6ec2
I604
sV\u5d4b
I605
sV\u76d2
I606
sV\u655b
I607
sV\u635f
I608
sV\u80de
I609
sV\u9ee2
I610
sV\u5be4
I611
sV\u8d6b
I612
sV\u63f4
I613
sV\u79f8
I614
sV\u6389
I615
sV\u7791
I616
sV\u9610
I617
sV\u9014
I618
sV\u631e
I619
sV\u7d22
I620
sV\u99a5
I621
sV\u54a7
I622
sV\u7726
I623
sV\u68af
I624
sV\u543c
I625
sV\u933e
I626
sV\u6248
I627
sV\u5dcd
I628
sV\u6bd9
I629
sV\u845c
I630
sV\u7fe1
I631
sV\u5766
I632
sV\u73e9
I633
sV\u6572
I634
sV\u797a
I635
sV\u95fd
I636
sV\u737e
I637
sV\u818a
I638
sV\u5c8c
I639
sV\u7ea0
I640
sV\u6731
I641
sV\u80b4
I642
sV\u9ab8
I643
sV\u94bc
I644
sV\u8349
I645
sV\u61ca
I646
sV\u75d2
I647
sV\u6c57
I648
sV\u58e4
I649
sV\u97e6
I650
sV\u66f0
I651
sV\u8273
I652
sV\u60f4
I653
sV\u907f
I654
sV\u6885
I655
sV\u6289
I656
sV\u7691
I657
sV\u5412
I658
sV\u7095
I659
sV\u5ba3
I660
sV\u55a7
I661
sV\u7626
I662
sV\u63b3
I663
sV\u9e36
I664
sV\u77bb
I665
sV\u4ec1
I666
sV\u8bc3
I667
sV\u7750
I668
sV\u4e56
I669
sV\u7ee1
I670
sV\u72e9
I671
sV\u86f1
I672
sV\u5df7
I673
sV\u9af9
I674
sV\u94fd
I675
sV\u51ff
I676
sV\u727e
I677
sV\u8c82
I678
sV\u9492
I679
sV\u659c
I680
sV\u9b23
I681
sV\u5229
I682
sV\u6631
I683
sV\u6035
I684
sV\u5eb6
I685
sV\u52be
I686
sV\u8e41
I687
sV\u8845
I688
sV\u8249
I689
sV\u60ca
I690
sV\u594f
I691
sV\u5353
I692
sV\u74d2
I693
sV\u82de
I694
sV\u5fe0
I695
sV\u53e8
I696
sV\u8f6b
I697
sV\u6dec
I698
sV\u547d
I699
sV\u75fc
I700
sV\u917f
I701
sV\u9000
I702
sV\u7785
I703
sV\u9604
I704
sV\u5f0a
I705
sV\u820c
I706
sV\u7116
I707
sV\u5e9f
I708
sV\u70ab
I709
sV\u6f2a
I710
sV\u952e
I711
sV\u5830
I712
sV\u7cb3
I713
sV\u9b32
I714
sV\u8d3e
I715
sV\u94c3
I716
sV\u6850
I717
sV\u5156
I718
sV\u575a
I719
sV\u7bdd
I720
sV\u67e5
I721
sV\u8bfd
I722
sV\u4eff
I723
sV\u5080
I724
sV\u7403
I725
sV\u9986
I726
sV\u9f8a
I727
sV\u660f
I728
sV\u6c13
I729
sV\u4e94
I730
sV\u7a9c
I731
sV\u9e1f
I732
sV\u60a0
I733
sV\u9eb4
I734
sV\u6539
I735
sV\u84b8
I736
sV\u5443
I737
sV\u73c2
I738
sV\u79c6
I739
sV\u7fca
I740
sV\u65ce
I741
sV\u6bd2
I742
sV\u89e6
I743
sV\u8fea
I744
sV\u72ec
I745
sV\u7ef4
I746
sV\u8e7f
I747
sV\u9704
I748
sV\u5806
I749
sV\u7c89
I750
sV\u830c
I751
sV\u8910
I752
sV\u9499
I753
sV\u80a1
I754
sV\u63b7
I755
sV\u8036
I756
sV\u69bb
I757
sV\u634c
I758
sV\u4ed5
I759
sV\u5c5e
I760
sV\u8160
I761
sV\u51eb
I762
sV\u5df3
I763
sV\u6076
I764
sV\u667a
I765
sV\u6c7e
I766
sV\u5180
I767
sV\u5784
I768
sV\u9886
I769
sV\u6da8
I770
sV\u5ab2
I771
sV\u6a3d
I772
sV\u8bbc
I773
sV\u9041
I774
sV\u5543
I775
sV\u72c2
I776
sV\u9645
I777
sV\u7eca
I778
sV\u64ce
I779
sV\u7357
I780
sV\u795b
I781
sV\u7f5f
I782
sV\u9cde
I783
sV\u6563
I784
sV\u6b67
I785
sV\u79f0
I786
sV\u8377
I787
sV\u8f7f
I788
sV\u800c
I789
sV\u6d95
I790
sV\u8c14
I791
sV\u7316
I792
sV\u5a9b
I793
sV\u751a
I794
sV\u8fa9
I795
sV\u6d2a
I796
sV\u502c
I797
sV\u7eb3
I798
sV\u5c34
I799
sV\u8336
I800
sV\u853a
I801
sV\u6cbf
I802
sV\u53c1
I803
sV\u55c5
I804
sV\u82cb
I805
sV\u6c54
I806
sV\u5356
I807
sV\u63e1
I808
sV\u65e5
I809
sV\u6376
I810
sV\u87f9
I811
sV\u5484
I812
sV\u640f
I813
sV\u9017
I814
sV\u789c
I815
sV\u62a0
I816
sV\u64a4
I817
sV\u90ac
I818
sV\u57ae
I819
sV\u9ab0
I820
sV\u59b2
I821
sV\u693d
I822
sV\u7bc6
I823
sV\u4e53
I824
sV\u93d6
I825
sV\u6867
I826
sV\u8be6
I827
sV\u4ee8
I828
sV\u8dea
I829
sV\u516d
I830
sV\u70ec
I831
sV\u5b71
I832
sV\u9e73
I833
sV\u7281
I834
sV\u9504
I835
sV\u5a06
I836
sV\u5c0a
I837
sV\u608d
I838
sV\u5197
I839
sV\u9699
I840
sV\u5b9b
I841
sV\u741a
I842
sV\u989d
I843
sV\u82a1
I844
sV\u73ab
I845
sV\u6c2a
I846
sV\u75af
I847
sV\u962e
I848
sV\u5d34
I849
sV\u61b7
I850
sV\u8236
I851
sV\u6dbf
I852
sV\u5ec9
I853
sV\u614c
I854
sV\u85cf
I855
sV\u6d54
I856
sV\u5256
I857
sV\u5e5e
I858
sV\u8360
I859
sV\u8564
I860
sV\u6ee9
I861
sV\u8f68
I862
sV\u53eb
I863
sV\u90ed
I864
sV\u55ef
I865
sV\u6276
I866
sV\u86f9
I867
sV\u647a
I868
sV\u6e7e
I869
sV\u9082
I870
sV\u5584
I871
sV\u9a86
I872
sV\u5f88
I873
sV\u6f13
I874
sV\u8892
I875
sV\u63a0
I876
sV\u8723
I877
sV\u65a4
I878
sV\u683d
I879
sV\u70c2
I880
sV\u5947
I881
sV\u9e49
I882
sV\u7cca
I883
sV\u4f53
I884
sV\u68d2
I885
sV\u7b5b
I886
sV\u59dc
I887
sV\u4fe8
I888
sV\u956f
I889
sV\u8c10
I890
sV\u5c9b
I891
sV\u4ea7
I892
sV\u562c
I893
sV\u72af
I894
sV\u78b3
I895
sV\u5a34
I896
sV\u6cbb
I897
sV\u664c
I898
sV\u82cf
I899
sV\u6c50
I900
sV\u5556
I901
sV\u535a
I902
sV\u9e5c
I903
sV\u8868
I904
sV\u97ed
I905
sV\u716e
I906
sV\u58f3
I907
sV\u7f72
I908
sV\u637a
I909
sV\u8ffd
I910
sV\u5480
I911
sV\u620f
I912
sV\u6813
I913
sV\u9617
I914
sV\u62a4
I915
sV\u68a8
I916
sV\u772d
I917
sV\u9541
I918
sV\u5043
I919
sV\u6fd2
I920
sV\u6063
I921
sV\u946b
I922
sV\u576d
I923
sV\u5b75
I924
sV\u7481
I925
sV\u9500
I926
sV\u5c06
I927
sV\u7889
I928
sV\u9099
I929
sV\u9e9d
I930
sV\u84a1
I931
sV\u82a5
I932
sV\u4fa7
I933
sV\u6c26
I934
sV\u75ab
I935
sV\u6a2a
I936
sV\u73af
I937
sV\u902e
I938
sV\u5b34
I939
sV\u67b7
I940
sV\u4f3c
I941
sV\u6bbf
I942
sV\u54c1
I943
sV\u7540
I944
sV\u7948
I945
sV\u674c
I946
sV\u83cf
I947
sV\u5456
I948
sV\u70d9
I949
sV\u7edd
I950
sV\u585e
I951
sV\u62e5
I952
sV\u8364
I953
sV\u55eb
I954
sV\u53ef
I955
sV\u5580
I956
sV\u5384
I957
sV\u7f07
I958
sV\u9c86
I959
sV\u5988
I960
sV\u9a8a
I961
sV\u5019
I962
sV\u7198
I963
sV\u5e1d
I964
sV\u9b1f
I965
sV\u69a8
I966
sV\u5143
I967
sV\u76c2
I968
sV\u94d6
I969
sV\u98de
I970
sV\u956b
I971
sV\u77ec
I972
sV\u5c71
I973
sV\u5a75
I974
sV\u9600
I975
sV\u9004
I976
sV\u840c
I977
sV\u6995
I978
sV\u711a
I979
sV\u589f
I980
sV\u7b1e
I981
sV\u8ba9
I982
sV\u542c
I983
sV\u70af
I984
sV\u64b7
I985
sV\u86cb
I986
sV\u4fd1
I987
sV\u6854
I988
sV\u515a
I989
sV\u56eb
I990
sV\u95ed
I991
sV\u4efb
I992
sV\u7c07
I993
sV\u998a
I994
sV\u600f
I995
sV\u838e
I996
sV\u5319
I997
sV\u8223
I998
sV\u8c27
I999
sV\u752d
I1000
sV\u53ae
I1001
sV\u7f31
I1002
sV\u6339
I1003
sV\u82b8
I1004
sV\u6d3d
I1005
sV\u5243
I1006
sV\u75c2
I1007
sV\u9b49
I1008
sV\u7457
I1009
sV\u52d8
I1010
sV\u6263
I1011
sV\u8fe6
I1012
sV\u5f71
I1013
sV\u7ef0
I1014
sV\u9a73
I1015
sV\u6cfc
I1016
sV\u887f
I1017
sV\u9700
I1018
sV\u7085
I1019
sV\u5e06
I1020
sV\u9b08
I1021
sV\u701a
I1022
sV\u80a5
I1023
sV\u682a
I1024
sV\u552c
I1025
sV\u5934
I1026
sV\u8a3e
I1027
sV\u7740
I1028
sV\u5ac9
I1029
sV\u87cb
I1030
sV\u654c
I1031
sV\u4ed1
I1032
sV\u8bd3
I1033
sV\u6954
I1034
sV\u72d9
I1035
sV\u505a
I1036
sV\u8760
I1037
sV\u4e66
I1038
sV\u94ed
I1039
sV\u51ef
I1040
sV\u6676
I1041
sV\u82f9
I1042
sV\u607a
I1043
sV\u5b88
I1044
sV\u670b
I1045
sV\u988a
I1046
sV\u610f
I1047
sV\u9517
I1048
sV\u5219
I1049
sV\u5c1d
I1050
sV\u8d27
I1051
sV\u5343
I1052
sV\u5d47
I1053
sV\u7ec6
I1054
sV\u78ca
I1055
sV\u62ce
I1056
sV\u8e51
I1057
sV\u53d8
I1058
sV\u795f
I1059
sV\u6363
I1060
sV\u916f
I1061
sV\u7ff0
I1062
sV\u63f8
I1063
sV\u8f7b
I1064
sV\u6dfc
I1065
sV\u897f
I1066
sV\u7981
I1067
sV\u5106
I1068
sV\u8010
I1069
sV\u6795
I1070
sV\u7f1a
I1071
sV\u6b22
I1072
sV\u672a
I1073
sV\u7eaf
I1074
sV\u5634
I1075
sV\u8936
I1076
sV\u60bb
I1077
sV\u7840
I1078
sV\u9cc3
I1079
sV\u5fc5
I1080
sV\u6050
I1081
sV\u84d3
I1082
sV\u6654
I1083
sV\u5956
I1084
sV\u65e9
I1085
sV\u58eb
I1086
sV\u7d6e
I1087
sV\u97f5
I1088
sV\u8df9
I1089
sV\u6f7a
I1090
sV\u83fd
I1091
sV\u5880
I1092
sV\u5e84
I1093
sV\u680b
I1094
sV\u6413
I1095
sV\u7c98
I1096
sV\u901b
I1097
sV\u531d
I1098
sV\u961f
I1099
sV\u8c23
I1100
sV\u4f25
I1101
sV\u7131
I1102
sV\u90b0
I1103
sV\u6d39
I1104
sV\u633d
I1105
sV\u9549
I1106
sV\u4e4f
I1107
sV\u8151
I1108
sV\u63d2
I1109
sV\u7a57
I1110
sV\u8be2
I1111
sV\u4ee4
I1112
sV\u6267
I1113
sV\u5171
I1114
sV\u76f4
I1115
sV\u6cf8
I1116
sV\u62fc
I1117
sV\u9508
I1118
sV\u8110
I1119
sV\u5b97
I1120
sV\u7816
I1121
sV\u519b
I1122
sV\u6026
I1123
sV\u7faf
I1124
sV\u75b3
I1125
sV\u6bb7
I1126
sV\u8e3a
I1127
sV\u58c1
I1128
sV\u7940
I1129
sV\u7f44
I1130
sV\u54c9
I1131
sV\u6b4c
I1132
sV\u85d3
I1133
sV\u7cd9
I1134
sV\u6ee5
I1135
sV\u8568
I1136
sV\u9aed
I1137
sV\u55f3
I1138
sV\u7272
I1139
sV\u6876
I1140
sV\u9a82
I1141
sV\u5f84
I1142
sV\u690b
I1143
sV\u6f0f
I1144
sV\u8292
I1145
sV\u521d
I1146
sV\u8d23
I1147
sV\u4e25
I1148
sV\u8327
I1149
sV\u52b2
I1150
sV\u8db8
I1151
sV\u4eba
I1152
sV\u623d
I1153
sV\u83bc
I1154
sV\u9e45
I1155
sV\u5347
I1156
sV\u76ca
I1157
sV\u4f4f
I1158
sV\u62d2
I1159
sV\u6d63
I1160
sV\u6367
I1161
sV\u9573
I1162
sV\u817b
I1163
sV\u5306
I1164
sV\u9608
I1165
sV\u4f0e
I1166
sV\u8210
I1167
sV\u9f99
I1168
sV\u529b
I1169
sV\u8ba1
I1170
sV\u5230
I1171
sV\u5434
I1172
sV\u4e38
I1173
sV\u62bb
I1174
sV\u8d3a
I1175
sV\u5dc5
I1176
sV\u684c
I1177
sV\u6454
I1178
sV\u9e58
I1179
sV\u575e
I1180
sV\u6be1
I1181
sV\u67e9
I1182
sV\u7f6e
I1183
sV\u7172
I1184
sV\u95f5
I1185
sV\u8ff9
I1186
sV\u677e
I1187
sV\u6c0f
I1188
sV\u8f8e
I1189
sV\u6613
I1190
sV\u709c
I1191
sV\u6ca4
I1192
sV\u66a8
I1193
sV\u5fae
I1194
sV\u51b2
I1195
sV\u7535
I1196
sV\u94b4
I1197
sV\u80bc
I1198
sV\u9b41
I1199
sV\u5047
I1200
sV\u75ca
I1201
sV\u8351
I1202
sV\u61d2
I1203
sV\u725b
I1204
sV\u745f
I1205
sV\u78ec
I1206
sV\u5371
I1207
sV\u72f0
I1208
sV\u5575
I1209
sV\u74f4
I1210
sV\u8877
I1211
sV\u7a81
I1212
sV\u5802
I1213
sV\u5206
I1214
sV\u9708
I1215
sV\u540a
I1216
sV\u4e0e
I1217
sV\u6291
I1218
sV\u6495
I1219
sV\u5997
I1220
sV\u909d
I1221
sV\u559f
I1222
sV\u4fa3
I1223
sV\u86a9
I1224
sV\u7bab
I1225
sV\u642a
I1226
sV\u77b3
I1227
sV\u69b7
I1228
sV\u4f38
I1229
sV\u5ac1
I1230
sV\u91c7
I1231
sV\u8bcb
I1232
sV\u6350
I1233
sV\u7ed9
I1234
sV\u6ce5
I1235
sV\u8d64
I1236
sV\u94f5
I1237
sV\u80fd
I1238
sV\u667e
I1239
sV\u7f03
I1240
sV\u9882
I1241
sV\u948a
I1242
sV\u5e19
I1243
sV\u951f
I1244
sV\u6da4
I1245
sV\u782d
I1246
sV\u7231
I1247
sV\u50b2
I1248
sV\u7435
I1249
sV\u884d
I1250
sV\u7957
I1251
sV\u5fd8
I1252
sV\u6167
I1253
sV\u82e6
I1254
sV\u9773
I1255
sV\u5475
I1256
sV\u75f4
I1257
sV\u837b
I1258
sV\u5f02
I1259
sV\u7b85
I1260
sV\u5506
I1261
sV\u6f8d
I1262
sV\u8e0c
I1263
sV\u6591
I1264
sV\u8214
I1265
sV\u5e97
I1266
sV\u9999
I1267
sV\u549b
I1268
sV\u529f
I1269
sV\u8ba5
I1270
sV\u632a
I1271
sV\u992e
I1272
sV\u70b3
I1273
sV\u9732
I1274
sV\u6eb7
I1275
sV\u62bf
I1276
sV\u813e
I1277
sV\u5bc5
I1278
sV\u96c7
I1279
sV\u51c9
I1280
sV\u6254
I1281
sV\u5b5a
I1282
sV\u6de1
I1283
sV\u95f1
I1284
sV\u4ef7
I1285
sV\u4e8c
I1286
sV\u5919
I1287
sV\u7898
I1288
sV\u60a8
I1289
sV\u7f2d
I1290
sV\u59ae
I1291
sV\u7531
I1292
sV\u94b0
I1293
sV\u57b2
I1294
sV\u6939
I1295
sV\u673d
I1296
sV\u9b45
I1297
sV\u9149
I1298
sV\u73ca
I1299
sV\u67d2
I1300
sV\u745b
I1301
sV\u725f
I1302
sV\u6863
I1303
sV\u8fe2
I1304
sV\u5f6d
I1305
sV\u9a6f
I1306
sV\u5375
I1307
sV\u66fc
I1308
sV\u827f
I1309
sV\u5e02
I1310
sV\u5406
I1311
sV\u7089
I1312
sV\u520a
I1313
sV\u6491
I1314
sV\u6295
I1315
sV\u5f97
I1316
sV\u7a1a
I1317
sV\u539f
I1318
sV\u80a9
I1319
sV\u622a
I1320
sV\u5530
I1321
sV\u9632
I1322
sV\u8c36
I1323
sV\u8dcb
I1324
sV\u4ecd
I1325
sV\u8bcf
I1326
sV\u5a5a
I1327
sV\u6ce1
I1328
sV\u8d60
I1329
sV\u60e9
I1330
sV\u5deb
I1331
sV\u786e
I1332
sV\u94f1
I1333
sV\u51f3
I1334
sV\u6c76
I1335
sV\u88f9
I1336
sV\u9e82
I1337
sV\u5b84
I1338
sV\u9486
I1339
sV\u5188
I1340
sV\u6d0b
I1341
sV\u5819
I1342
sV\u951b
I1343
sV\u61a8
I1344
sV\u7235
I1345
sV\u6839
I1346
sV\u7ec2
I1347
sV\u5747
I1348
sV\u7f57
I1349
sV\u9cd6
I1350
sV\u59d8
I1351
sV\u755b
I1352
sV\u6963
I1353
sV\u84e6
I1354
sV\u5471
I1355
sV\u75f0
I1356
sV\u857b
I1357
sV\u7f81
I1358
sV\u5d02
I1359
sV\u7985
I1360
sV\u5706
I1361
sV\u7389
I1362
sV\u8c0c
I1363
sV\u5c97
I1364
sV\u7f16
I1365
sV\u731e
I1366
sV\u6726
I1367
sV\u7eab
I1368
sV\u5c2c
I1369
sV\u9532
I1370
sV\u53c9
I1371
sV\u7248
I1372
sV\u82d3
I1373
sV\u7bd9
I1374
sV\u595a
I1375
sV\u535e
I1376
sV\u6fe1
I1377
sV\u63e9
I1378
sV\u8bf9
I1379
sV\u5288
I1380
sV\u680f
I1381
sV\u7a98
I1382
sV\u749c
I1383
sV\u901f
I1384
sV\u8427
I1385
sV\u62a8
I1386
sV\u4e4b
I1387
sV\u8d4d
I1388
sV\u8155
I1389
sV\u6467
I1390
sV\u9e6b
I1391
sV\u81ea
I1392
sV\u5175
I1393
sV\u867b
I1394
sV\u807f
I1395
sV\u6691
I1396
sV\u579b
I1397
sV\u781a
I1398
sV\u949d
I1399
sV\u6c22
I1400
sV\u82a9
I1401
sV\u602a
I1402
sV\u5730
I1403
sV\u73b3
I1404
sV\u823e
I1405
sV\u58c5
I1406
sV\u52c9
I1407
sV\u6750
I1408
sV\u7ad9
I1409
sV\u955c
I1410
sV\u6ee1
I1411
sV\u62e9
I1412
sV\u8368
I1413
sV\u5feb
I1414
sV\u53f3
I1415
sV\u627e
I1416
sV\u5f80
I1417
sV\u7b03
I1418
sV\u9c82
I1419
sV\u5984
I1420
sV\u9686
I1421
sV\u541d
I1422
sV\u63a8
I1423
sV\u91b4
I1424
sV\u8bb8
I1425
sV\u643d
I1426
sV\u76c6
I1427
sV\u70ca
I1428
sV\u8651
I1429
sV\u64d2
I1430
sV\u775b
I1431
sV\u98da
I1432
sV\u55dc
I1433
sV\u6b63
I1434
sV\u80ea
I1435
sV\u996f
I1436
sV\u5671
I1437
sV\u8d77
I1438
sV\u817f
I1439
sV\u6302
I1440
sV\u908b
I1441
sV\u968f
I1442
sV\u5f95
I1443
sV\u6297
I1444
sV\u8418
I1445
sV\u6e9f
I1446
sV\u9020
I1447
sV\u622c
I1448
sV\u6e34
I1449
sV\u7a3c
I1450
sV\u73cd
I1451
sV\u524c
I1452
sV\u79d1
I1453
sV\u7fd5
I1454
sV\u5e54
I1455
sV\u82d7
I1456
sV\u51e1
I1457
sV\u94e3
I1458
sV\u5de9
I1459
sV\u60eb
I1460
sV\u7f6a
I1461
sV\u8870
I1462
sV\u6cf3
I1463
sV\u8e74
I1464
sV\u72f7
I1465
sV\u5176
I1466
sV\u9a7c
I1467
sV\u7eff
I1468
sV\u6684
I1469
sV\u6c88
I1470
sV\u9e3f
I1471
sV\u80c0
I1472
sV\u86c4
I1473
sV\u6a47
I1474
sV\u4fca
I1475
sV\u5bd2
I1476
sV\u9ed4
I1477
sV\u8559
I1478
sV\u64d8
I1479
sV\u4e5f
I1480
sV\u9765
I1481
sV\u5a67
I1482
sV\u7ce8
I1483
sV\u636d
I1484
sV\u8bf2
I1485
sV\u7579
I1486
sV\u918b
I1487
sV\u6e0a
I1488
sV\u5e95
I1489
sV\u699b
I1490
sV\u75a3
I1491
sV\u82ad
I1492
sV\u88b1
I1493
sV\u6930
I1494
sV\u7538
I1495
sV\u59bb
I1496
sV\u7b3c
I1497
sV\u6cc9
I1498
sV\u8e4a
I1499
sV\u72cd
I1500
sV\u7ed5
I1501
sV\u665a
I1502
sV\u8fdf
I1503
sV\u6c5e
I1504
sV\u7262
I1505
sV\u67ef
I1506
sV\u6df3
I1507
sV\u8f74
I1508
sV\u5076
I1509
sV\u79fb
I1510
sV\u8001
I1511
sV\u8605
I1512
sV\u6784
I1513
sV\u6d88
I1514
sV\u510b
I1515
sV\u7f94
I1516
sV\u8096
I1517
sV\u51a0
I1518
sV\u98a6
I1519
sV\u64ae
I1520
sV\u5439
I1521
sV\u7cbe
I1522
sV\u81c0
I1523
sV\u6b47
I1524
sV\u4eca
I1525
sV\u54ce
I1526
sV\u5ad2
I1527
sV\u8459
I1528
sV\u4f5f
I1529
sV\u71e0
I1530
sV\u626d
I1531
sV\u5bfc
I1532
sV\u518d
I1533
sV\u948f
I1534
sV\u9e93
I1535
sV\u6c9f
I1536
sV\u4f1e
I1537
sV\u78a7
I1538
sV\u9e28
I1539
sV\u4eb3
I1540
sV\u8db5
I1541
sV\u6c34
I1542
sV\u7638
I1543
sV\u5cbf
I1544
sV\u65c5
I1545
sV\u6fc9
I1546
sV\u4e48
I1547
sV\u8d4a
I1548
sV\u504c
I1549
sV\u7bd1
I1550
sV\u80d7
I1551
sV\u6f5e
I1552
sV\u70f7
I1553
sV\u987c
I1554
sV\u8301
I1555
sV\u6280
I1556
sV\u540f
I1557
sV\u8f9e
I1558
sV\u7321
I1559
sV\u52a0
I1560
sV\u7525
I1561
sV\u54a4
I1562
sV\u7f29
I1563
sV\u822b
I1564
sV\u5739
I1565
sV\u6643
I1566
sV\u84c4
I1567
sV\u57ce
I1568
sV\u59d2
I1569
sV\u9cd4
I1570
sV\u8759
I1571
sV\u72e0
I1572
sV\u74e4
I1573
sV\u87ee
I1574
sV\u7779
I1575
sV\u95fa
I1576
sV\u8783
I1577
sV\u6002
I1578
sV\u4e89
I1579
sV\u508d
I1580
sV\u7812
I1581
sV\u8718
I1582
sV\u6d9f
I1583
sV\u4e1e
I1584
sV\u9524
I1585
sV\u79a7
I1586
sV\u51b7
I1587
sV\u7738
I1588
sV\u793c
I1589
sV\u8042
I1590
sV\u64c5
I1591
sV\u5b50
I1592
sV\u7cd5
I1593
sV\u8bdb
I1594
sV\u8ddf
I1595
sV\u54e5
I1596
sV\u65ef
I1597
sV\u8d74
I1598
sV\u997c
I1599
sV\u6380
I1600
sV\u8e09
I1601
sV\u6f88
I1602
sV\u900d
I1603
sV\u550f
I1604
sV\u7b90
I1605
sV\u5f13
I1606
sV\u6619
I1607
sV\u681d
I1608
sV\u90a2
I1609
sV\u7425
I1610
sV\u5fa8
I1611
sV\u832b
I1612
sV\u66ae
I1613
sV\u72b6
I1614
sV\u5639
I1615
sV\u9b3b
I1616
sV\u74ba
I1617
sV\u7ebe
I1618
sV\u83c0
I1619
sV\u6743
I1620
sV\u8fc8
I1621
sV\u91cc
I1622
sV\u754f
I1623
sV\u67d8
I1624
sV\u73e0
I1625
sV\u75e4
I1626
sV\u9e69
I1627
sV\u606d
I1628
sV\u86ee
I1629
sV\u6a71
I1630
sV\u57f8
I1631
sV\u94fa
I1632
sV\u8083
I1633
sV\u8e87
I1634
sV\u948b
I1635
sV\u9893
I1636
sV\u5b95
I1637
sV\u6697
I1638
sV\u8018
I1639
sV\u6c9b
I1640
sV\u7ea7
I1641
sV\u87ad
I1642
sV\u6c30
I1643
sV\u56b7
I1644
sV\u65c1
I1645
sV\u77cd
I1646
sV\u564c
I1647
sV\u5c50
I1648
sV\u6556
I1649
sV\u4fdd
I1650
sV\u695e
I1651
sV\u55e1
I1652
sV\u53e5
I1653
sV\u9ee7
I1654
sV\u866c
I1655
sV\u62ef
I1656
sV\u5576
I1657
sV\u7cfb
I1658
sV\u7aff
I1659
sV\u8305
I1660
sV\u6284
I1661
sV\u4e07
I1662
sV\u970d
I1663
sV\u7325
I1664
sV\u58a8
I1665
sV\u73ba
I1666
sV\u79be
I1667
sV\u6043
I1668
sV\u82c4
I1669
sV\u96cc
I1670
sV\u9cd0
I1671
sV\u5fd2
I1672
sV\u60d8
I1673
sV\u78e8
I1674
sV\u676d
I1675
sV\u6602
I1676
sV\u8f87
I1677
sV\u6a0a
I1678
sV\u938f
I1679
sV\u5c91
I1680
sV\u6797
I1681
sV\u8118
I1682
sV\u6d9b
I1683
sV\u672c
I1684
sV\u90b9
I1685
sV\u9ebd
I1686
sV\u5bbf
I1687
sV\u62c5
I1688
sV\u8c46
I1689
sV\u68c9
I1690
sV\u5b54
I1691
sV\u8ddb
I1692
sV\u4edd
I1693
sV\u8bdf
I1694
sV\u8d70
I1695
sV\u9178
I1696
sV\u587e
I1697
sV\u8205
I1698
sV\u6988
I1699
sV\u778c
I1700
sV\u7b94
I1701
sV\u6019
I1702
sV\u6e1d
I1703
sV\u59a8
I1704
sV\u852b
I1705
sV\u832f
I1706
sV\u5e3d
I1707
sV\u78be
I1708
sV\u6f47
I1709
sV\u89c8
I1710
sV\u754b
I1711
sV\u7953
I1712
sV\u94f6
I1713
sV\u51f8
I1714
sV\u6f06
I1715
sV\u968b
I1716
sV\u730e
I1717
sV\u8c1c
I1718
sV\u5522
I1719
sV\u5f26
I1720
sV\u592a
I1721
sV\u642c
I1722
sV\u8fb1
I1723
sV\u7238
I1724
sV\u75cd
I1725
sV\u5854
I1726
sV\u6756
I1727
sV\u88df
I1728
sV\u846c
I1729
sV\u60ef
I1730
sV\u8e70
I1731
sV\u74f7
I1732
sV\u7efb
I1733
sV\u9c7c
I1734
sV\u6084
I1735
sV\u500f
I1736
sV\u5a13
I1737
sV\u63ae
I1738
sV\u6db2
I1739
sV\u5339
I1740
sV\u5d3d
I1741
sV\u86c0
I1742
sV\u80c4
I1743
sV\u6c47
I1744
sV\u94cc
I1745
sV\u704f
I1746
sV\u62d8
I1747
sV\u8d5d
I1748
sV\u9761
I1749
sV\u9165
I1750
sV\u70e4
I1751
sV\u4ef0
I1752
sV\u97f6
I1753
sV\u6402
I1754
sV\u978b
I1755
sV\u680a
I1756
sV\u5e91
I1757
sV\u6597
I1758
sV\u5e26
I1759
sV\u582a
I1760
sV\u6934
I1761
sV\u55b7
I1762
sV\u9cbd
I1763
sV\u60c5
I1764
sV\u7ed1
I1765
sV\u78d5
I1766
sV\u5954
I1767
sV\u6656
I1768
sV\u8fdb
I1769
sV\u56e1
I1770
sV\u5ae9
I1771
sV\u8f70
I1772
sV\u5676
I1773
sV\u7ffb
I1774
sV\u8005
I1775
sV\u809a
I1776
sV\u57a0
I1777
sV\u94a2
I1778
sV\u51a4
I1779
sV\u9ea6
I1780
sV\u812f
I1781
sV\u5239
I1782
sV\u9f3b
I1783
sV\u5c3d
I1784
sV\u87c0
I1785
sV\u6d47
I1786
sV\u4ec6
I1787
sV\u8bc8
I1788
sV\u4f5b
I1789
sV\u9661
I1790
sV\u9065
I1791
sV\u646d
I1792
sV\u96f6
I1793
sV\u7279
I1794
sV\u53f8
I1795
sV\u7c7d
I1796
sV\u670a
I1797
sV\u9493
I1798
sV\u6a97
I1799
sV\u8c18
I1800
sV\u609b
I1801
sV\u4f1a
I1802
sV\u821c
I1803
sV\u8bad
I1804
sV\u6634
I1805
sV\u7c38
I1806
sV\u50bb
I1807
sV\u69c1
I1808
sV\u8146
I1809
sV\u5654
I1810
sV\u80db
I1811
sV\u86df
I1812
sV\u655e
I1813
sV\u7166
I1814
sV\u5976
I1815
sV\u557e
I1816
sV\u5e0f
I1817
sV\u5413
I1818
sV\u6d19
I1819
sV\u631d
I1820
sV\u7f25
I1821
sV\u7529
I1822
sV\u54a8
I1823
sV\u8e2f
I1824
sV\u6dae
I1825
sV\u903b
I1826
sV\u963f
I1827
sV\u75be
I1828
sV\u6247
I1829
sV\u9acc
I1830
sV\u62dc
I1831
sV\u5c63
I1832
sV\u5267
I1833
sV\u83f2
I1834
sV\u6775
I1835
sV\u95fe
I1836
sV\u6006
I1837
sV\u998b
I1838
sV\u660a
I1839
sV\u4e1a
I1840
sV\u831c
I1841
sV\u5026
I1842
sV\u9528
I1843
sV\u4faf
I1844
sV\u80b1
I1845
sV\u86b5
I1846
sV\u6734
I1847
sV\u51bb
I1848
sV\u8046
I1849
sV\u8bd7
I1850
sV\u645e
I1851
sV\u54e9
I1852
sV\u8b6c
I1853
sV\u6fef
I1854
sV\u8170
I1855
sV\u8774
I1856
sV\u7bf7
I1857
sV\u5e7a
I1858
sV\u77ff
I1859
sV\u6980
I1860
sV\u6f84
I1861
sV\u5f0f
I1862
sV\u9011
I1863
sV\u8896
I1864
sV\u6c19
I1865
sV\u9aa2
I1866
sV\u90a6
I1867
sV\u892b
I1868
sV\u6cae
I1869
sV\u5c39
I1870
sV\u7eba
I1871
sV\u523d
I1872
sV\u6d43
I1873
sV\u8fc4
I1874
sV\u52d2
I1875
sV\u6dd8
I1876
sV\u5367
I1877
sV\u75e8
I1878
sV\u53fc
I1879
sV\u94fe
I1880
sV\u8087
I1881
sV\u9a8b
I1882
sV\u598d
I1883
sV\u7f0e
I1884
sV\u6897
I1885
sV\u629b
I1886
sV\u7ea3
I1887
sV\u83b1
I1888
sV\u6434
I1889
sV\u54bf
I1890
sV\u6bc1
I1891
sV\u6dc5
I1892
sV\u8346
I1893
sV\u854a
I1894
sV\u79cd
I1895
sV\u584c
I1896
sV\u73d1
I1897
sV\u5250
I1898
sV\u9152
I1899
sV\u75d5
I1900
sV\u82db
I1901
sV\u6d5a
I1902
sV\u84df
I1903
sV\u675e
I1904
sV\u5be1
I1905
sV\u7962
I1906
sV\u5de5
I1907
sV\u756a
I1908
sV\u886c
I1909
sV\u6cef
I1910
sV\u8270
I1911
sV\u66f3
I1912
sV\u78f7
I1913
sV\u6a80
I1914
sV\u4e03
I1915
sV\u8709
I1916
sV\u990d
I1917
sV\u788c
I1918
sV\u5c0f
I1919
sV\u9515
I1920
sV\u4e98
I1921
sV\u7729
I1922
sV\u5f39
I1923
sV\u6e43
I1924
sV\u60dc
I1925
sV\u7ae0
I1926
sV\u9769
I1927
sV\u6371
I1928
sV\u7f79
I1929
sV\u717d
I1930
sV\u8f83
I1931
sV\u6206
I1932
sV\u5495
I1933
sV\u659f
I1934
sV\u88ad
I1935
sV\u82b1
I1936
sV\u7f38
I1937
sV\u53bb
I1938
sV\u6cc5
I1939
sV\u9e4e
I1940
sV\u9052
I1941
sV\u4ed9
I1942
sV\u5ae1
I1943
sV\u5ce5
I1944
sV\u7266
I1945
sV\u6beb
I1946
sV\u67f3
I1947
sV\u8574
I1948
sV\u5a76
I1949
sV\u75ff
I1950
sV\u8c05
I1951
sV\u601d
I1952
sV\u5ba0
I1953
sV\u98a2
I1954
sV\u7629
I1955
sV\u8d2f
I1956
sV\u60b2
I1957
sV\u8bc0
I1958
sV\u8dc4
I1959
sV\u7b4b
I1960
sV\u8e59
I1961
sV\u9669
I1962
sV\u5ff8
I1963
sV\u96fe
I1964
sV\u6f02
I1965
sV\u9a8f
I1966
sV\u5591
I1967
sV\u9093
I1968
sV\u5395
I1969
sV\u78a3
I1970
sV\u532a
I1971
sV\u6234
I1972
sV\u5eb7
I1973
sV\u7838
I1974
sV\u54bb
I1975
sV\u52bf
I1976
sV\u6bc5
I1977
sV\u5e4c
I1978
sV\u5450
I1979
sV\u9752
I1980
sV\u5254
I1981
sV\u82df
I1982
sV\u5de1
I1983
sV\u7f62
I1984
sV\u5be5
I1985
sV\u6ceb
I1986
sV\u8e6c
I1987
sV\u60f3
I1988
sV\u7ef7
I1989
sV\u5b7a
I1990
sV\u6a84
I1991
sV\u8109
I1992
sV\u9511
I1993
sV\u7490
I1994
sV\u671d
I1995
sV\u50a8
I1996
sV\u8033
I1997
sV\u5939
I1998
sV\u6843
I1999
sV\u94d0
I2000
sV\u68d8
I2001
sV\u66dc
I2002
sV\u7ce0
I2003
sV\u9169
I2004
sV\u70e8
I2005
sV\u6f6d
I2006
sV\u4eec
I2007
sV\u777d
I2008
sV\u8983
I2009
sV\u620a
I2010
sV\u659b
I2011
sV\u871c
I2012
sV\u77a7
I2013
sV\u5426
I2014
sV\u5fb7
I2015
sV\u55bb
I2016
sV\u96bd
I2017
sV\u773c
I2018
sV\u53bf
I2019
sV\u8e42
I2020
sV\u8446
I2021
sV\u7ecd
I2022
sV\u5550
I2023
sV\u83df
I2024
sV\u5ce1
I2025
sV\u97e7
I2026
sV\u6deb
I2027
sV\u8f6c
I2028
sV\u6bef
I2029
sV\u5a7a
I2030
sV\u977c
I2031
sV\u8c01
I2032
sV\u6b84
I2033
sV\u7f8c
I2034
sV\u661d
I2035
sV\u5ba4
I2036
sV\u94a6
I2037
sV\u8d2b
I2038
sV\u4e2d
I2039
sV\u9f37
I2040
sV\u953b
I2041
sV\u4ec2
I2042
sV\u8bc4
I2043
sV\u7b4f
I2044
sV\u4f57
I2045
sV\u8859
I2046
sV\u67dc
I2047
sV\u767d
I2048
sV\u9e8b
I2049
sV\u988f
I2050
sV\u5195
I2051
sV\u841c
I2052
sV\u609f
I2053
sV\u9e20
I2054
sV\u74a7
I2055
sV\u4eab
I2056
sV\u5cb7
I2057
sV\u743c
I2058
sV\u8d42
I2059
sV\u63c9
I2060
sV\u814a
I2061
sV\u9552
I2062
sV\u71d5
I2063
sV\u86db
I2064
sV\u695a
I2065
sV\u635e
I2066
sV\u5fe1
I2067
sV\u59e5
I2068
sV\u94e7
I2069
sV\u7766
I2070
sV\u53e9
I2071
sV\u62f3
I2072
sV\u9a78
I2073
sV\u8309
I2074
sV\u7094
I2075
sV\u8f96
I2076
sV\u839e
I2077
sV\u7f21
I2078
sV\u7329
I2079
sV\u52a8
I2080
sV\u91aa
I2081
sV\u963b
I2082
sV\u79ba
I2083
sV\u6447
I2084
sV\u9ccc
I2085
sV\u55d2
I2086
sV\u7ee0
I2087
sV\u9965
I2088
sV\u8bee
I2089
sV\u6175
I2090
sV\u7b79
I2091
sV\u54fc
I2092
sV\u8587
I2093
sV\u6606
I2094
sV\u9f8b
I2095
sV\u998f
I2096
sV\u7a0e
I2097
sV\u4e16
I2098
sV\u9f20
I2099
sV\u502a
I2100
sV\u86b1
I2101
sV\u94bd
I2102
sV\u6ec1
I2103
sV\u62c9
I2104
sV\u804a
I2105
sV\u7ccd
I2106
sV\u5d4c
I2107
sV\u76d1
I2108
sV\u5750
I2109
sV\u5154
I2110
sV\u8dd7
I2111
sV\u6e56
I2112
sV\u8770
I2113
sV\u8174
I2114
sV\u5e76
I2115
sV\u6984
I2116
sV\u6388
I2117
sV\u5f0b
I2118
sV\u590f
I2119
sV\u9611
I2120
sV\u7194
I2121
sV\u9ca2
I2122
sV\u7825
I2123
sV\u59a4
I2124
sV\u53a8
I2125
sV\u90aa
I2126
sV\u8333
I2127
sV\u7eb6
I2128
sV\u6b43
I2129
sV\u89c4
I2130
sV\u54d2
I2131
sV\u7fe0
I2132
sV\u5b63
I2133
sV\u79e4
I2134
sV\u5567
I2135
sV\u7a79
I2136
sV\u5bf8
I2137
sV\u9a87
I2138
sV\u808b
I2139
sV\u789b
I2140
sV\u8c28
I2141
sV\u4f2a
I2142
sV\u722c
I2143
sV\u56af
I2144
sV\u7830
I2145
sV\u5cb3
I2146
sV\u8bbd
I2147
sV\u4ebf
I2148
sV\u5c48
I2149
sV\u63cd
I2150
sV\u4e54
I2151
sV\u775a
I2152
sV\u5bdd
I2153
sV\u6362
I2154
sV\u6966
I2155
sV\u70eb
I2156
sV\u76ef
I2157
sV\u556e
I2158
sV\u62f7
I2159
sV\u7080
I2160
sV\u5403
I2161
sV\u7684
I2162
sV\u5a07
I2163
sV\u7519
I2164
sV\u75ae
I2165
sV\u5931
I2166
sV\u8237
I2167
sV\u53c2
I2168
sV\u96c4
I2169
sV\u59c6
I2170
sV\u604b
I2171
sV\u664f
I2172
sV\u60e0
I2173
sV\u6ce8
I2174
sV\u736d
I2175
sV\u95ee
I2176
sV\u58f0
I2177
sV\u5685
I2178
sV\u4e95
I2179
sV\u7f9f
I2180
sV\u8d28
I2181
sV\u4e2a
I2182
sV\u732c
I2183
sV\u7f34
I2184
sV\u6538
I2185
sV\u4fbf
I2186
sV\u70c1
I2187
sV\u5140
I2188
sV\u76c5
I2189
sV\u9e4a
I2190
sV\u62cd
I2191
sV\u6ed5
I2192
sV\u8be7
I2193
sV\u6866
I2194
sV\u9970
I2195
sV\u9001
I2196
sV\u9605
I2197
sV\u7784
I2198
sV\u820d
I2199
sV\u638c
I2200
sV\u5598
I2201
sV\u5b9c
I2202
sV\u6021
I2203
sV\u6625
I2204
sV\u6c29
I2205
sV\u6cbe
I2206
sV\u5eca
I2207
sV\u83cc
I2208
sV\u674f
I2209
sV\u89d0
I2210
sV\u6d53
I2211
sV\u8fd4
I2212
sV\u5357
I2213
sV\u75d8
I2214
sV\u53ec
I2215
sV\u94ee
I2216
sV\u80f6
I2217
sV\u6479
I2218
sV\u9887
I2219
sV\u7b06
I2220
sV\u5f89
I2221
sV\u828b
I2222
sV\u7d0a
I2223
sV\u6912
I2224
sV\u5316
I2225
sV\u7c9f
I2226
sV\u8424
I2227
sV\u68a7
I2228
sV\u52ab
I2229
sV\u54af
I2230
sV\u683c
I2231
sV\u75c5
I2232
sV\u874e
I2233
sV\u90d7
I2234
sV\u57d9
I2235
sV\u755a
I2236
sV\u59dd
I2237
sV\u9cdf
I2238
sV\u6162
I2239
sV\u6b66
I2240
sV\u4fe9
I2241
sV\u6d6a
I2242
sV\u74ef
I2243
sV\u9a70
I2244
sV\u7ef3
I2245
sV\u4f7e
I2246
sV\u7280
I2247
sV\u9505
I2248
sV\u5807
I2249
sV\u810d
I2250
sV\u608c
I2251
sV\u6a90
I2252
sV\u4e13
I2253
sV\u7719
I2254
sV\u6321
I2255
sV\u6525
I2256
sV\u8ba6
I2257
sV\u6f29
I2258
sV\u4ea8
I2259
sV\u9e33
I2260
sV\u8037
I2261
sV\u94c4
I2262
sV\u5bc6
I2263
sV\u624b
I2264
sV\u80cc
I2265
sV\u9759
I2266
sV\u76d8
I2267
sV\u8361
I2268
sV\u64e4
I2269
sV\u8f69
I2270
sV\u6ee8
I2271
sV\u7b71
I2272
sV\u858f
I2273
sV\u660e
I2274
sV\u8f93
I2275
sV\u67a3
I2276
sV\u69a7
I2277
sV\u9cb5
I2278
sV\u9042
I2279
sV\u5544
I2280
sV\u7ec9
I2281
sV\u864e
I2282
sV\u6cd5
I2283
sV\u745a
I2284
sV\u6062
I2285
sV\u6c6a
I2286
sV\u916c
I2287
sV\u7ff3
I2288
sV\u4e7e
I2289
sV\u5703
I2290
sV\u5907
I2291
sV\u800d
I2292
sV\u8c15
I2293
sV\u6d94
I2294
sV\u7619
I2295
sV\u949a
I2296
sV\u781d
I2297
sV\u6221
I2298
sV\u80a2
I2299
sV\u6e29
I2300
sV\u4fa8
I2301
sV\u502d
I2302
sV\u952f
I2303
sV\u76ae
I2304
sV\u5a31
I2305
sV\u78b2
I2306
sV\u64ba
I2307
sV\u8d3f
I2308
sV\u634b
I2309
sV\u654f
I2310
sV\u63e0
I2311
sV\u8e69
I2312
sV\u706d
I2313
sV\u5bf0
I2314
sV\u5df4
I2315
sV\u5581
I2316
sV\u9083
I2317
sV\u5385
I2318
sV\u9e87
I2319
sV\u848b
I2320
sV\u610e
I2321
sV\u7a9f
I2322
sV\u60a3
I2323
sV\u6ea7
I2324
sV\u54ab
I2325
sV\u97ad
I2326
sV\u8fbd
I2327
sV\u5440
I2328
sV\u79c9
I2329
sV\u6dd1
I2330
sV\u6bd5
I2331
sV\u5fdd
I2332
sV\u795e
I2333
sV\u6d66
I2334
sV\u6b6a
I2335
sV\u516e
I2336
sV\u9a74
I2337
sV\u6cfb
I2338
sV\u8e7c
I2339
sV\u9501
I2340
sV\u7480
I2341
sV\u7284
I2342
sV\u870d
I2343
sV\u668c
I2344
sV\u6c90
I2345
sV\u7119
I2346
sV\u7f1d
I2347
sV\u5e9c
I2348
sV\u6325
I2349
sV\u8baa
I2350
sV\u572d
I2351
sV\u7fb2
I2352
sV\u63ba
I2353
sV\u4f3d
I2354
sV\u94c0
I2355
sV\u57c2
I2356
sV\u6853
I2357
sV\u5657
I2358
sV\u70d8
I2359
sV\u7edc
I2360
sV\u8365
I2361
sV\u5cf0
I2362
sV\u7b75
I2363
sV\u9f87
I2364
sV\u5889
I2365
sV\u600e
I2366
sV\u5416
I2367
sV\u521a
I2368
sV\u6fa7
I2369
sV\u9cb1
I2370
sV\u9642
I2371
sV\u78c9
I2372
sV\u5948
I2373
sV\u8e52
I2374
sV\u81e3
I2375
sV\u75eb
I2376
sV\u5e72
I2377
sV\u6dfb
I2378
sV\u8f7c
I2379
sV\u7384
I2380
sV\u8c11
I2381
sV\u5f9c
I2382
sV\u989e
I2383
sV\u6421
I2384
sV\u6829
I2385
sV\u562d
I2386
sV\u70ae
I2387
sV\u5c31
I2388
sV\u7eb2
I2389
sV\u8737
I2390
sV\u8d3b
I2391
sV\u4e3d
I2392
sV\u634f
I2393
sV\u5757
I2394
sV\u5b5f
I2395
sV\u8461
I2396
sV\u65e0
I2397
sV\u8869
I2398
sV\u6079
I2399
sV\u88fe
I2400
sV\u5185
I2401
sV\u9c87
I2402
sV\u7f06
I2403
sV\u5b89
I2404
sV\u868b
I2405
sV\u630e
I2406
sV\u4f91
I2407
sV\u8a93
I2408
sV\u6d12
I2409
sV\u7e9b
I2410
sV\u789f
I2411
sV\u6ca7
I2412
sV\u4f26
I2413
sV\u742c
I2414
sV\u5ab3
I2415
sV\u7834
I2416
sV\u83b9
I2417
sV\u9542
I2418
sV\u6fd1
I2419
sV\u4e50
I2420
sV\u94d7
I2421
sV\u53d9
I2422
sV\u9edb
I2423
sV\u5ddd
I2424
sV\u98df
I2425
sV\u82e3
I2426
sV\u6562
I2427
sV\u6f66
I2428
sV\u70ef
I2429
sV\u9e70
I2430
sV\u9701
I2431
sV\u5203
I2432
sV\u7a88
I2433
sV\u6e90
I2434
sV\u919a
I2435
sV\u902f
I2436
sV\u73ae
I2437
sV\u5f31
I2438
sV\u67b6
I2439
sV\u96c0
I2440
sV\u90c4
I2441
sV\u5fc6
I2442
sV\u664b
I2443
sV\u59ca
I2444
sV\u88d4
I2445
sV\u5457
I2446
sV\u7cdc
I2447
sV\u8165
I2448
sV\u8bfe
I2449
sV\u5085
I2450
sV\u818f
I2451
sV\u620e
I2452
sV\u4e91
I2453
sV\u7597
I2454
sV\u501a
I2455
sV\u63a3
I2456
sV\u6da7
I2457
sV\u57ab
I2458
sV\u752c
I2459
sV\u51af
I2460
sV\u7f30
I2461
sV\u5bb3
I2462
sV\u7934
I2463
sV\u82b9
I2464
sV\u6d3c
I2465
sV\u5740
I2466
sV\u5144
I2467
sV\u64cd
I2468
sV\u6ed1
I2469
sV\u4f50
I2470
sV\u68d5
I2471
sV\u7656
I2472
sV\u77eb
I2473
sV\u956c
I2474
sV\u9974
I2475
sV\u65f7
I2476
sV\u8378
I2477
sV\u69ff
I2478
sV\u9601
I2479
sV\u9005
I2480
sV\u7184
I2481
sV\u5d07
I2482
sV\u840d
I2483
sV\u658c
I2484
sV\u8815
I2485
sV\u6994
I2486
sV\u5398
I2487
sV\u9a9e
I2488
sV\u6025
I2489
sV\u542d
I2490
sV\u912f
I2491
sV\u7cb2
I2492
sV\u5835
I2493
sV\u8537
I2494
sV\u54c2
I2495
sV\u8fd0
I2496
sV\u67e0
I2497
sV\u6279
I2498
sV\u80fa
I2499
sV\u6c7d
I2500
sV\u5981
I2501
sV\u5f85
I2502
sV\u5589
I2503
sV\u888b
I2504
sV\u8e8f
I2505
sV\u6d0e
I2506
sV\u7a97
I2507
sV\u5916
I2508
sV\u6ca3
I2509
sV\u8428
I2510
sV\u54b3
I2511
sV\u7634
I2512
sV\u6c38
I2513
sV\u83bd
I2514
sV\u79c1
I2515
sV\u9b42
I2516
sV\u7fc5
I2517
sV\u5e44
I2518
sV\u75c9
I2519
sV\u5448
I2520
sV\u6bcd
I2521
sV\u8d4e
I2522
sV\u61d1
I2523
sV\u8352
I2524
sV\u7956
I2525
sV\u7f5a
I2526
sV\u6b62
I2527
sV\u9a6c
I2528
sV\u7eef
I2529
sV\u66ff
I2530
sV\u5207
I2531
sV\u9509
I2532
sV\u8111
I2533
sV\u8715
I2534
sV\u9996
I2535
sV\u5c98
I2536
sV\u9f9a
I2537
sV\u731d
I2538
sV\u8ba2
I2539
sV\u4ea4
I2540
sV\u81a6
I2541
sV\u9e2f
I2542
sV\u7dae
I2543
sV\u73b2
I2544
sV\u803b
I2545
sV\u5bc2
I2546
sV\u9ec4
I2547
sV\u7247
I2548
sV\u51c6
I2549
sV\u94c8
I2550
sV\u86d4
I2551
sV\u68e0
I2552
sV\u6ee4
I2553
sV\u56f4
I2554
sV\u5881
I2555
sV\u8f8f
I2556
sV\u6212
I2557
sV\u7b97
I2558
sV\u5e1a
I2559
sV\u779f
I2560
sV\u541e
I2561
sV\u6da3
I2562
sV\u63a7
I2563
sV\u59ab
I2564
sV\u7b2c
I2565
sV\u90b1
I2566
sV\u7130
I2567
sV\u55b3
I2568
sV\u82bd
I2569
sV\u78c1
I2570
sV\u7ec5
I2571
sV\u60d1
I2572
sV\u5cd9
I2573
sV\u745e
I2574
sV\u4ee5
I2575
sV\u9170
I2576
sV\u5272
I2577
sV\u9774
I2578
sV\u837c
I2579
sV\u67ff
I2580
sV\u7980
I2581
sV\u4f0f
I2582
sV\u9896
I2583
sV\u949e
I2584
sV\u6821
I2585
sV\u6e25
I2586
sV\u86aa
I2587
sV\u9f2f
I2588
sV\u7cae
I2589
sV\u6eba
I2590
sV\u873f
I2591
sV\u5ac2
I2592
sV\u56ca
I2593
sV\u8bcc
I2594
sV\u5b57
I2595
sV\u575f
I2596
sV\u8861
I2597
sV\u8469
I2598
sV\u65e8
I2599
sV\u51f0
I2600
sV\u6c79
I2601
sV\u5b81
I2602
sV\u8693
I2603
sV\u7897
I2604
sV\u8c24
I2605
sV\u782c
I2606
sV\u7230
I2607
sV\u7434
I2608
sV\u8fb9
I2609
sV\u6e38
I2610
sV\u603c
I2611
sV\u5a40
I2612
sV\u954a
I2613
sV\u7b56
I2614
sV\u5fd9
I2615
sV\u51dd
I2616
sV\u94df
I2617
sV\u80e7
I2618
sV\u7cef
I2619
sV\u5e03
I2620
sV\u9709
I2621
sV\u7688
I2622
sV\u8311
I2623
sV\u7f19
I2624
sV\u6b21
I2625
sV\u6d25
I2626
sV\u85aa
I2627
sV\u592d
I2628
sV\u9633
I2629
sV\u9cc4
I2630
sV\u4fce
I2631
sV\u6653
I2632
sV\u7ed8
I2633
sV\u915d
I2634
sV\u796d
I2635
sV\u58ec
I2636
sV\u8bf6
I2637
sV\u8dfa
I2638
sV\u87fe
I2639
sV\u9f83
I2640
sV\u7802
I2641
sV\u9187
I2642
sV\u7206
I2643
sV\u740a
I2644
sV\u6e0e
I2645
sV\u6012
I2646
sV\u739b
I2647
sV\u5c1a
I2648
sV\u759f
I2649
sV\u561e
I2650
sV\u8d24
I2651
sV\u61a7
I2652
sV\u5bab
I2653
sV\u94b5
I2654
sV\u80bd
I2655
sV\u5b40
I2656
sV\u7cc5
I2657
sV\u68cd
I2658
sV\u8052
I2659
sV\u765e
I2660
sV\u6862
I2661
sV\u81e7
I2662
sV\u6266
I2663
sV\u996c
I2664
sV\u77f3
I2665
sV\u8f78
I2666
sV\u817c
I2667
sV\u7b80
I2668
sV\u5f03
I2669
sV\u9609
I2670
sV\u6390
I2671
sV\u5f98
I2672
sV\u519c
I2673
sV\u6a21
I2674
sV\u82a6
I2675
sV\u5435
I2676
sV\u4e39
I2677
sV\u6d4f
I2678
sV\u4ece
I2679
sV\u6753
I2680
sV\u5957
I2681
sV\u7fd8
I2682
sV\u4f63
I2683
sV\u6de4
I2684
sV\u59ec
I2685
sV\u53f0
I2686
sV\u4ff8
I2687
sV\u86fe
I2688
sV\u7f02
I2689
sV\u5b85
I2690
sV\u5189
I2691
sV\u4f8d
I2692
sV\u690e
I2693
sV\u8093
I2694
sV\u5d16
I2695
sV\u961c
I2696
sV\u729f
I2697
sV\u8c20
I2698
sV\u4f22
I2699
sV\u66a7
I2700
sV\u5cab
I2701
sV\u7430
I2702
sV\u6838
I2703
sV\u87bd
I2704
sV\u663c
I2705
sV\u5c40
I2706
sV\u5048
I2707
sV\u4e4c
I2708
sV\u94db
I2709
sV\u7b5a
I2710
sV\u57dd
I2711
sV\u715e
I2712
sV\u6f62
I2713
sV\u6566
I2714
sV\u9e6c
I2715
sV\u7aef
I2716
sV\u9274
I2717
sV\u62ff
I2718
sV\u7a84
I2719
sV\u8511
I2720
sV\u83aa
I2721
sV\u5f2d
I2722
sV\u5531
I2723
sV\u61be
I2724
sV\u53ca
I2725
sV\u82d4
I2726
sV\u545b
I2727
sV\u8d61
I2728
sV\u6ce0
I2729
sV\u8169
I2730
sV\u60e8
I2731
sV\u6979
I2732
sV\u8bfa
I2733
sV\u81fe
I2734
sV\u5c81
I2735
sV\u7406
I2736
sV\u8d8b
I2737
sV\u680e
I2738
sV\u5c16
I2739
sV\u971c
I2740
sV\u739f
I2741
sV\u4e22
I2742
sV\u7f2c
I2743
sV\u94b1
I2744
sV\u7530
I2745
sV\u51b3
I2746
sV\u7334
I2747
sV\u7cc1
I2748
sV\u9e42
I2749
sV\u5148
I2750
sV\u705e
I2751
sV\u89e3
I2752
sV\u626a
I2753
sV\u9570
I2754
sV\u877c
I2755
sV\u63ff
I2756
sV\u9009
I2757
sV\u6590
I2758
sV\u9a9a
I2759
sV\u6c21
I2760
sV\u6029
I2761
sV\u82aa
I2762
sV\u5e2d
I2763
sV\u5431
I2764
sV\u76b2
I2765
sV\u853b
I2766
sV\u7747
I2767
sV\u54c6
I2768
sV\u6d4b
I2769
sV\u85d0
I2770
sV\u83d4
I2771
sV\u5f57
I2772
sV\u79d8
I2773
sV\u77dc
I2774
sV\u535f
I2775
sV\u8c61
I2776
sV\u8069
I2777
sV\u7275
I2778
sV\u5f81
I2779
sV\u9487
I2780
sV\u5389
I2781
sV\u710a
I2782
sV\u6512
I2783
sV\u7c97
I2784
sV\u591a
I2785
sV\u8228
I2786
sV\u52b3
I2787
sV\u8bb9
I2788
sV\u7fc1
I2789
sV\u73c9
I2790
sV\u914a
I2791
sV\u67d1
I2792
sV\u9cd7
I2793
sV\u795a
I2794
sV\u55dd
I2795
sV\u4fe1
I2796
sV\u7eeb
I2797
sV\u72f3
I2798
sV\u9074
I2799
sV\u6cf7
I2800
sV\u4f76
I2801
sV\u5a03
I2802
sV\u4e0b
I2803
sV\u6c8c
I2804
sV\u6094
I2805
sV\u7b19
I2806
sV\u9e2b
I2807
sV\u5d2d
I2808
sV\u75b2
I2809
sV\u8c37
I2810
sV\u6fb6
I2811
sV\u803f
I2812
sV\u86d0
I2813
sV\u6253
I2814
sV\u955d
I2815
sV\u74dc
I2816
sV\u62e8
I2817
sV\u56f0
I2818
sV\u95f2
I2819
sV\u6b79
I2820
sV\u5885
I2821
sV\u8f8b
I2822
sV\u8393
I2823
sV\u5e16
I2824
sV\u719f
I2825
sV\u65a7
I2826
sV\u8328
I2827
sV\u9cad
I2828
sV\u59af
I2829
sV\u90b5
I2830
sV\u84bd
I2831
sV\u78c5
I2832
sV\u5944
I2833
sV\u9646
I2834
sV\u5348
I2835
sV\u60d5
I2836
sV\u54dd
I2837
sV\u4ee1
I2838
sV\u8be3
I2839
sV\u6666
I2840
sV\u606a
I2841
sV\u79ef
I2842
sV\u5472
I2843
sV\u6df7
I2844
sV\u61ff
I2845
sV\u7984
I2846
sV\u5507
I2847
sV\u8c0d
I2848
sV\u6d8c
I2849
sV\u8611
I2850
sV\u6790
I2851
sV\u8015
I2852
sV\u6194
I2853
sV\u5b98
I2854
sV\u989a
I2855
sV\u559c
I2856
sV\u6e21
I2857
sV\u4fa0
I2858
sV\u80aa
I2859
sV\u5631
I2860
sV\u8d37
I2861
sV\u6eb6
I2862
sV\u873b
I2863
sV\u6f4b
I2864
sV\u8dcc
I2865
sV\u575b
I2866
sV\u6fe0
I2867
sV\u8865
I2868
sV\u94f2
I2869
sV\u7075
I2870
sV\u6a79
I2871
sV\u8302
I2872
sV\u5e14
I2873
sV\u8297
I2874
sV\u94a3
I2875
sV\u7624
I2876
sV\u9aa7
I2877
sV\u822c
I2878
sV\u75b9
I2879
sV\u573a
I2880
sV\u6342
I2881
sV\u7b52
I2882
sV\u62d7
I2883
sV\u8d5e
I2884
sV\u74e3
I2885
sV\u5664
I2886
sV\u80eb
I2887
sV\u626c
I2888
sV\u6101
I2889
sV\u9890
I2890
sV\u7f15
I2891
sV\u679a
I2892
sV\u6d9e
I2893
sV\u73a2
I2894
sV\u662f
I2895
sV\u85ae
I2896
sV\u8bb2
I2897
sV\u7237
I2898
sV\u54b8
I2899
sV\u783b
I2900
sV\u5951
I2901
sV\u78d0
I2902
sV\u5f55
I2903
sV\u7ed4
I2904
sV\u6559
I2905
sV\u7765
I2906
sV\u5fea
I2907
sV\u836d
I2908
sV\u65ee
I2909
sV\u5e7f
I2910
sV\u8202
I2911
sV\u6b87
I2912
sV\u8e0a
I2913
sV\u6518
I2914
sV\u8f9f
I2915
sV\u5ca9
I2916
sV\u832c
I2917
sV\u8930
I2918
sV\u9b3c
I2919
sV\u5c3e
I2920
sV\u80c1
I2921
sV\u6846
I2922
sV\u51cb
I2923
sV\u98d1
I2924
sV\u69db
I2925
sV\u865a
I2926
sV\u75e3
I2927
sV\u5764
I2928
sV\u8df3
I2929
sV\u4ef5
I2930
sV\u7578
I2931
sV\u6001
I2932
sV\u8180
I2933
sV\u548e
I2934
sV\u9990
I2935
sV\u5a92
I2936
sV\u6096
I2937
sV\u4f1f
I2938
sV\u9021
I2939
sV\u612b
I2940
sV\u7eaa
I2941
sV\u672f
I2942
sV\u7337
I2943
sV\u8543
I2944
sV\u67c4
I2945
sV\u914b
I2946
sV\u524d
I2947
sV\u5851
I2948
sV\u5e55
I2949
sV\u7fd4
I2950
sV\u5eea
I2951
sV\u5377
I2952
sV\u9a7d
I2953
sV\u8102
I2954
sV\u4e08
I2955
sV\u500c
I2956
sV\u970e
I2957
sV\u5c14
I2958
sV\u98a7
I2959
sV\u6db5
I2960
sV\u8c34
I2961
sV\u79bd
I2962
sV\u83c1
I2963
sV\u6b46
I2964
sV\u52cb
I2965
sV\u6d4a
I2966
sV\u91cd
I2967
sV\u54cf
I2968
sV\u5ed3
I2969
sV\u9162
I2970
sV\u5464
I2971
sV\u82eb
I2972
sV\u606c
I2973
sV\u6c74
I2974
sV\u57f9
I2975
sV\u7678
I2976
sV\u9afb
I2977
sV\u787c
I2978
sV\u6301
I2979
sV\u6f09
I2980
sV\u7b11
I2981
sV\u9a90
I2982
sV\u5992
I2983
sV\u9c94
I2984
sV\u6396
I2985
sV\u5623
I2986
sV\u9525
I2987
sV\u7a3b
I2988
sV\u7c3f
I2989
sV\u514d
I2990
sV\u5b51
I2991
sV\u4fde
I2992
sV\u7565
I2993
sV\u94e4
I2994
sV\u7f69
I2995
sV\u816d
I2996
sV\u4e73
I2997
sV\u69f2
I2998
sV\u8d75
I2999
sV\u5077
I3000
sV\u997d
I3001
sV\u5c7f
I3002
sV\u738b
I3003
sV\u8c0a
I3004
sV\u758f
I3005
sV\u960e
I3006
sV\u5d14
I3007
sV\u8d9f
I3008
sV\u52a1
I3009
sV\u97a3
I3010
sV\u7f28
I3011
sV\u60ad
I3012
sV\u8d34
I3013
sV\u5236
I3014
sV\u9738
I3015
sV\u82c1
I3016
sV\u6042
I3017
sV\u53cb
I3018
sV\u6c4a
I3019
sV\u7852
I3020
sV\u9cd5
I3021
sV\u6bdb
I3022
sV\u845a
I3023
sV\u5360
I3024
sV\u77e3
I3025
sV\u9062
I3026
sV\u5564
I3027
sV\u79e7
I3028
sV\u8ff3
I3029
sV\u6d74
I3030
sV\u56f9
I3031
sV\u6405
I3032
sV\u8584
I3033
sV\u8f88
I3034
sV\u918c
I3035
sV\u568e
I3036
sV\u5892
I3037
sV\u6296
I3038
sV\u5723
I3039
sV\u5927
I3040
sV\u7aa6
I3041
sV\u9e29
I3042
sV\u632b
I3043
sV\u7caa
I3044
sV\u652f
I3045
sV\u6f33
I3046
sV\u94ba
I3047
sV\u9ebe
I3048
sV\u4e49
I3049
sV\u5c55
I3050
sV\u7261
I3051
sV\u5ae6
I3052
sV\u5cea
I3053
sV\u4f73
I3054
sV\u5177
I3055
sV\u987d
I3056
sV\u7efe
I3057
sV\u8702
I3058
sV\u748b
I3059
sV\u560c
I3060
sV\u7893
I3061
sV\u4f9d
I3062
sV\u90a3
I3063
sV\u53a5
I3064
sV\u59a9
I3065
sV\u67ad
I3066
sV\u8c30
I3067
sV\u4f32
I3068
sV\u6bb5
I3069
sV\u71b9
I3070
sV\u9038
I3071
sV\u533a
I3072
sV\u7fbd
I3073
sV\u6742
I3074
sV\u83c5
I3075
sV\u4ec7
I3076
sV\u6d46
I3077
sV\u89c9
I3078
sV\u714e
I3079
sV\u8556
I3080
sV\u6cdb
I3081
sV\u835a
I3082
sV\u895e
I3083
sV\u9762
I3084
sV\u7ee7
I3085
sV\u82ef
I3086
sV\u6c70
I3087
sV\u88f3
I3088
sV\u96f7
I3089
sV\u51f9
I3090
sV\u7078
I3091
sV\u5ffd
I3092
sV\u8888
I3093
sV\u9c90
I3094
sV\u5f92
I3095
sV\u7b15
I3096
sV\u9521
I3097
sV\u5e27
I3098
sV\u7da6
I3099
sV\u7baa
I3100
sV\u6833
I3101
sV\u7a3f
I3102
sV\u64c0
I3103
sV\u8043
I3104
sV\u62c4
I3105
sV\u8e47
I3106
sV\u574d
I3107
sV\u5b55
I3108
sV\u94e0
I3109
sV\u5de6
I3110
sV\u98e8
I3111
sV\u5a7f
I3112
sV\u8c06
I3113
sV\u758b
I3114
sV\u91a3
I3115
sV\u58a9
I3116
sV\u6cb1
I3117
sV\u8d30
I3118
sV\u4e32
I3119
sV\u70b9
I3120
sV\u523a
I3121
sV\u7ebd
I3122
sV\u84c1
I3123
sV\u96cd
I3124
sV\u59d3
I3125
sV\u4f5c
I3126
sV\u9662
I3127
sV\u5364
I3128
sV\u7178
I3129
sV\u6401
I3130
sV\u6809
I3131
sV\u8019
I3132
sV\u629a
I3133
sV\u8e1d
I3134
sV\u5f27
I3135
sV\u652b
I3136
sV\u632f
I3137
sV\u80ae
I3138
sV\u8eb2
I3139
sV\u7737
I3140
sV\u94b6
I3141
sV\u63c4
I3142
sV\u5c51
I3143
sV\u5a55
I3144
sV\u6059
I3145
sV\u8fdc
I3146
sV\u56e2
I3147
sV\u5ce6
I3148
sV\u60ee
I3149
sV\u5777
I3150
sV\u74f6
I3151
sV\u768b
I3152
sV\u540c
I3153
sV\u5e10
I3154
sV\u6218
I3155
sV\u7620
I3156
sV\u51a5
I3157
sV\u65ad
I3158
sV\u8bc9
I3159
sV\u50cf
I3160
sV\u996a
I3161
sV\u80ef
I3162
sV\u4ff1
I3163
sV\u94f7
I3164
sV\u53f9
I3165
sV\u5dfd
I3166
sV\u8680
I3167
sV\u8084
I3168
sV\u948c
I3169
sV\u9894
I3170
sV\u4e1b
I3171
sV\u8d1d
I3172
sV\u5c27
I3173
sV\u602f
I3174
sV\u7e3b
I3175
sV\u91ba
I3176
sV\u8c47
I3177
sV\u964b
I3178
sV\u904f
I3179
sV\u7ed0
I3180
sV\u5955
I3181
sV\u7761
I3182
sV\u8f71
I3183
sV\u5477
I3184
sV\u77f6
I3185
sV\u5e7b
I3186
sV\u7bfe
I3187
sV\u880a
I3188
sV\u718f
I3189
sV\u5914
I3190
sV\u8f9b
I3191
sV\u7720
I3192
sV\u50a5
I3193
sV\u7b28
I3194
sV\u64ad
I3195
sV\u852c
I3196
sV\u68b5
I3197
sV\u8934
I3198
sV\u5636
I3199
sV\u72b9
I3200
sV\u503a
I3201
sV\u7cbd
I3202
sV\u57cb
I3203
sV\u94cd
I3204
sV\u51cf
I3205
sV\u9ed1
I3206
sV\u5bd3
I3207
sV\u98d5
I3208
sV\u65d7
I3209
sV\u805a
I3210
sV\u69df
I3211
sV\u5760
I3212
sV\u9e66
I3213
sV\u656c
I3214
sV\u8bf3
I3215
sV\u95f7
I3216
sV\u6005
I3217
sV\u4e86
I3218
sV\u6696
I3219
sV\u609a
I3220
sV\u9621
I3221
sV\u5323
I3222
sV\u5d27
I3223
sV\u7ea6
I3224
sV\u672b
I3225
sV\u82ae
I3226
sV\u7537
I3227
sV\u96b6
I3228
sV\u90ba
I3229
sV\u8343
I3230
sV\u83d8
I3231
sV\u6c5d
I3232
sV\u846d
I3233
sV\u62ee
I3234
sV\u5577
I3235
sV\u5f7b
I3236
sV\u6c83
I3237
sV\u8106
I3238
sV\u870a
I3239
sV\u5a0c
I3240
sV\u6c18
I3241
sV\u809b
I3242
sV\u9ca3
I3243
sV\u7428
I3244
sV\u5f3a
I3245
sV\u553e
I3246
sV\u89c1
I3247
sV\u8fc5
I3248
sV\u85c9
I3249
sV\u91d1
I3250
sV\u54d3
I3251
sV\u7352
I3252
sV\u855e
I3253
sV\u5468
I3254
sV\u6070
I3255
sV\u6674
I3256
sV\u53fd
I3257
sV\u6901
I3258
sV\u9a8c
I3259
sV\u9694
I3260
sV\u77aa
I3261
sV\u6e2f
I3262
sV\u83b2
I3263
sV\u7a37
I3264
sV\u5cb8
I3265
sV\u763f
I3266
sV\u68c0
I3267
sV\u8247
I3268
sV\u9e4f
I3269
sV\u5151
I3270
sV\u76d4
I3271
sV\u6d59
I3272
sV\u4fda
I3273
sV\u82dc
I3274
sV\u94e8
I3275
sV\u6dee
I3276
sV\u8171
I3277
sV\u5a77
I3278
sV\u507b
I3279
sV\u6387
I3280
sV\u8006
I3281
sV\u819b
I3282
sV\u879f
I3283
sV\u5ea5
I3284
sV\u7f24
I3285
sV\u54a9
I3286
sV\u7528
I3287
sV\u60b1
I3288
sV\u8734
I3289
sV\u7cb9
I3290
sV\u543e
I3291
sV\u88c1
I3292
sV\u84c9
I3293
sV\u59cb
I3294
sV\u5fcf
I3295
sV\u90d1
I3296
sV\u55d3
I3297
sV\u7252
I3298
sV\u96d5
I3299
sV\u6bd7
I3300
sV\u5960
I3301
sV\u5f64
I3302
sV\u966a
I3303
sV\u6170
I3304
sV\u6e05
I3305
sV\u8f84
I3306
sV\u7a0d
I3307
sV\u7011
I3308
sV\u9190
I3309
sV\u8c19
I3310
sV\u649e
I3311
sV\u9e25
I3312
sV\u6f2f
I3313
sV\u94be
I3314
sV\u8d43
I3315
sV\u4e45
I3316
sV\u9553
I3317
sV\u83dc
I3318
sV\u95e8
I3319
sV\u4f6f
I3320
sV\u6cee
I3321
sV\u517b
I3322
sV\u7efa
I3323
sV\u6e83
I3324
sV\u8902
I3325
sV\u8306
I3326
sV\u9f0e
I3327
sV\u7693
I3328
sV\u601c
I3329
sV\u5ba1
I3330
sV\u7a20
I3331
sV\u57a9
I3332
sV\u69ad
I3333
sV\u8230
I3334
sV\u7fb9
I3335
sV\u9e38
I3336
sV\u903c
I3337
sV\u573e
I3338
sV\u8bc1
I3339
sV\u4ec3
I3340
sV\u6942
I3341
sV\u6346
I3342
sV\u4e58
I3343
sV\u62db
I3344
sV\u8d5a
I3345
sV\u7ee3
I3346
sV\u70e7
I3347
sV\u5668
I3348
sV\u6270
I3349
sV\u86f3
I3350
sV\u51fd
I3351
sV\u707c
I3352
sV\u94ff
I3353
sV\u6709
I3354
sV\u988c
I3355
sV\u5192
I3356
sV\u9494
I3357
sV\u6b96
I3358
sV\u679e
I3359
sV\u6c2f
I3360
sV\u7837
I3361
sV\u5eb8
I3362
sV\u6cc4
I3363
sV\u5351
I3364
sV\u72d0
I3365
sV\u5555
I3366
sV\u80dc
I3367
sV\u53e6
I3368
sV\u96e8
I3369
sV\u55ea
I3370
sV\u6fee
I3371
sV\u77fe
I3372
sV\u8206
I3373
sV\u5310
I3374
sV\u9012
I3375
sV\u5514
I3376
sV\u839b
I3377
sV\u7b20
I3378
sV\u7728
I3379
sV\u68ad
I3380
sV\u62b1
I3381
sV\u64b5
I3382
sV\u5a36
I3383
sV\u7eb9
I3384
sV\u5c3a
I3385
sV\u70bd
I3386
sV\u4fc3
I3387
sV\u6842
I3388
sV\u86c9
I3389
sV\u644a
I3390
sV\u94d5
I3391
sV\u4f58
I3392
sV\u8c5a
I3393
sV\u865e
I3394
sV\u71e7
I3395
sV\u5768
I3396
sV\u8beb
I3397
sV\u8def
I3398
sV\u6574
I3399
sV\u8d84
I3400
sV\u8788
I3401
sV\u780d
I3402
sV\u80b2
I3403
sV\u9ab6
I3404
sV\u51bc
I3405
sV\u96be
I3406
sV\u6dc4
I3407
sV\u584d
I3408
sV\u5251
I3409
sV\u73d0
I3410
sV\u9753
I3411
sV\u5455
I3412
sV\u75d4
I3413
sV\u8fd8
I3414
sV\u54ea
I3415
sV\u8475
I3416
sV\u907d
I3417
sV\u76fe
I3418
sV\u6687
I3419
sV\u5e0c
I3420
sV\u5410
I3421
sV\u5ba5
I3422
sV\u96a7
I3423
sV\u79b9
I3424
sV\u8bc5
I3425
sV\u5ccb
I3426
sV\u8d56
I3427
sV\u62df
I3428
sV\u5c60
I3429
sV\u4fed
I3430
sV\u80f3
I3431
sV\u59f9
I3432
sV\u6d01
I3433
sV\u6109
I3434
sV\u7511
I3435
sV\u5792
I3436
sV\u7315
I3437
sV\u8919
I3438
sV\u6b9a
I3439
sV\u5627
I3440
sV\u4eac
I3441
sV\u6a2f
I3442
sV\u56bc
I3443
sV\u7ecc
I3444
sV\u9053
I3445
sV\u5355
I3446
sV\u88d8
I3447
sV\u55e6
I3448
sV\u90e8
I3449
sV\u53ea
I3450
sV\u8f6d
I3451
sV\u547b
I3452
sV\u527f
I3453
sV\u6787
I3454
sV\u5510
I3455
sV\u8f97
I3456
sV\u859b
I3457
sV\u7d20
I3458
sV\u7b24
I3459
sV\u50a9
I3460
sV\u62b5
I3461
sV\u8334
I3462
sV\u78b9
I3463
sV\u503e
I3464
sV\u6446
I3465
sV\u9ecd
I3466
sV\u94d1
I3467
sV\u79e3
I3468
sV\u5b64
I3469
sV\u5168
I3470
sV\u8bef
I3471
sV\u6570
I3472
sV\u81f3
I3473
sV\u58f9
I3474
sV\u7978
I3475
sV\u95fb
I3476
sV\u56fd
I3477
sV\u8188
I3478
sV\u9f8c
I3479
sV\u4f17
I3480
sV\u7ea2
I3481
sV\u4fac
I3482
sV\u9cb6
I3483
sV\u753b
I3484
sV\u733f
I3485
sV\u6dc0
I3486
sV\u8747
I3487
sV\u61c8
I3488
sV\u7fcc
I3489
sV\u9b4f
I3490
sV\u54e6
I3491
sV\u8e6d
I3492
sV\u68ee
I3493
sV\u8471
I3494
sV\u66f2
I3495
sV\u5f77
I3496
sV\u9879
I3497
sV\u557b
I3498
sV\u7afa
I3499
sV\u537f
I3500
sV\u4e00
I3501
sV\u6487
I3502
sV\u810a
I3503
sV\u9512
I3504
sV\u5014
I3505
sV\u6a18
I3506
sV\u641c
I3507
sV\u5fa1
I3508
sV\u59a5
I3509
sV\u94a7
I3510
sV\u53a9
I3511
sV\u8c2c
I3512
sV\u593a
I3513
sV\u75bd
I3514
sV\u533e
I3515
sV\u8fc1
I3516
sV\u89c5
I3517
sV\u6746
I3518
sV\u6cd7
I3519
sV\u60df
I3520
sV\u835e
I3521
sV\u7ae3
I3522
sV\u916a
I3523
sV\u6670
I3524
sV\u5bf9
I3525
sV\u55fd
I3526
sV\u6905
I3527
sV\u8884
I3528
sV\u6309
I3529
sV\u8288
I3530
sV\u9690
I3531
sV\u7115
I3532
sV\u5a23
I3533
sV\u5427
I3534
sV\u8bae
I3535
sV\u6233
I3536
sV\u62c8
I3537
sV\u9e4b
I3538
sV\u7ccc
I3539
sV\u5751
I3540
sV\u76d0
I3541
sV\u655d
I3542
sV\u7f61
I3543
sV\u9ee0
I3544
sV\u5de2
I3545
sV\u7965
I3546
sV\u8d6d
I3547
sV\u567b
I3548
sV\u507f
I3549
sV\u6b83
I3550
sV\u6587
I3551
sV\u798f
I3552
sV\u7f20
I3553
sV\u52a9
I3554
sV\u8d2c
I3555
sV\u6c42
I3556
sV\u88c5
I3557
sV\u9ccd
I3558
sV\u75e7
I3559
sV\u8feb
I3560
sV\u6770
I3561
sV\u54fd
I3562
sV\u6805
I3563
sV\u5492
I3564
sV\u841d
I3565
sV\u9e21
I3566
sV\u5527
I3567
sV\u6f2b
I3568
sV\u84b2
I3569
sV\u5bb8
I3570
sV\u6fc0
I3571
sV\u5055
I3572
sV\u4ed6
I3573
sV\u6a59
I3574
sV\u8bd8
I3575
sV\u85dc
I3576
sV\u7269
I3577
sV\u8671
I3578
sV\u7ef6
I3579
sV\u9a79
I3580
sV\u78fa
I3581
sV\u7483
I3582
sV\u6c93
I3583
sV\u4e14
I3584
sV\u5599
I3585
sV\u989b
I3586
sV\u5b9d
I3587
sV\u9e9f
I3588
sV\u6020
I3589
sV\u6c28
I3590
sV\u552e
I3591
sV\u65b9
I3592
sV\u8438
I3593
sV\u89d1
I3594
sV\u72d7
I3595
sV\u5458
I3596
sV\u7edf
I3597
sV\u8966
I3598
sV\u53ed
I3599
sV\u96ef
I3600
sV\u5ff5
I3601
sV\u82f7
I3602
sV\u6478
I3603
sV\u9080
I3604
sV\u5382
I3605
sV\u5986
I3606
sV\u9c88
I3607
sV\u5f8a
I3608
sV\u5217
I3609
sV\u9519
I3610
sV\u63a2
I3611
sV\u8725
I3612
sV\u8d29
I3613
sV\u52ac
I3614
sV\u6237
I3615
sV\u87ba
I3616
sV\u8dbe
I3617
sV\u5141
I3618
sV\u804b
I3619
sV\u62cc
I3620
sV\u864f
I3621
sV\u4f55
I3622
sV\u6ed4
I3623
sV\u7559
I3624
sV\u57da
I3625
sV\u7b5d
I3626
sV\u5dde
I3627
sV\u6765
I3628
sV\u86e4
I3629
sV\u6d69
I3630
sV\u4fea
I3631
sV\u9971
I3632
sV\u8579
I3633
sV\u5704
I3634
sV\u618b
I3635
sV\u840e
I3636
sV\u6d93
I3637
sV\u5499
I3638
sV\u7518
I3639
sV\u9f9f
I3640
sV\u6120
I3641
sV\u8ba7
I3642
sV\u72ad
I3643
sV\u542e
I3644
sV\u78b1
I3645
sV\u5a32
I3646
sV\u7eb5
I3647
sV\u90c1
I3648
sV\u96c5
I3649
sV\u5bc7
I3650
sV\u82cd
I3651
sV\u5b5c
I3652
sV\u7fdf
I3653
sV\u6b7c
I3654
sV\u5e8a
I3655
sV\u620d
I3656
sV\u6811
I3657
sV\u5317
I3658
sV\u7096
I3659
sV\u5f1f
I3660
sV\u62a2
I3661
sV\u68a6
I3662
sV\u8c29
I3663
sV\u6eaa
I3664
sV\u772f
I3665
sV\u94ae
I3666
sV\u86ba
I3667
sV\u9b47
I3668
sV\u5c49
I3669
sV\u814b
I3670
sV\u69d0
I3671
sV\u8d53
I3672
sV\u50d6
I3673
sV\u7459
I3674
sV\u56da
I3675
sV\u6c69
I3676
sV\u8de8
I3677
sV\u516b
I3678
sV\u4eea
I3679
sV\u576f
I3680
sV\u74ee
I3681
sV\u60f6
I3682
sV\u4f7f
I3683
sV\u6cfe
I3684
sV\u5200
I3685
sV\u9102
I3686
sV\u5404
I3687
sV\u7887
I3688
sV\u5e08
I3689
sV\u8912
I3690
sV\u7618
I3691
sV\u9a9b
I3692
sV\u9c9f
I3693
sV\u86a3
I3694
sV\u4fa9
I3695
sV\u572e
I3696
sV\u7bb1
I3697
sV\u8638
I3698
sV\u674e
I3699
sV\u8bd1
I3700
sV\u4ed3
I3701
sV\u5658
I3702
sV\u7cdf
I3703
sV\u8b66
I3704
sV\u51ed
I3705
sV\u94ef
I3706
sV\u7a70
I3707
sV\u7301
I3708
sV\u7f09
I3709
sV\u808c
I3710
sV\u8c94
I3711
sV\u7396
I3712
sV\u759a
I3713
sV\u7f9e
I3714
sV\u6daa
I3715
sV\u50ac
I3716
sV\u8fbe
I3717
sV\u5341
I3718
sV\u7ec8
I3719
sV\u824b
I3720
sV\u53d6
I3721
sV\u795d
I3722
sV\u6361
I3723
sV\u77ee
I3724
sV\u5e73
I3725
sV\u63f6
I3726
sV\u65fa
I3727
sV\u5300
I3728
sV\u9002
I3729
sV\u5f08
I3730
sV\u6320
I3731
sV\u4ea9
I3732
sV\u70ad
I3733
sV\u66b9
I3734
sV\u4e3e
I3735
sV\u57c3
I3736
sV\u94c5
I3737
sV\u7a46
I3738
sV\u80cd
I3739
sV\u9e5e
I3740
sV\u8c6a
I3741
sV\u50ed
I3742
sV\u95ef
I3743
sV\u8bfb
I3744
sV\u697c
I3745
sV\u7405
I3746
sV\u9f88
I3747
sV\u600d
I3748
sV\u8d94
I3749
sV\u9619
I3750
sV\u8425
I3751
sV\u8e29
I3752
sV\u732b
I3753
sV\u6caa
I3754
sV\u51ac
I3755
sV\u752f
I3756
sV\u5bb0
I3757
sV\u7f33
I3758
sV\u5241
I3759
sV\u73c0
I3760
sV\u785d
I3761
sV\u83e0
I3762
sV\u85e4
I3763
sV\u536b
I3764
sV\u906d
I3765
sV\u76ee
I3766
sV\u9a71
I3767
sV\u78f2
I3768
sV\u8679
I3769
sV\u6893
I3770
sV\u5199
I3771
sV\u9c9b
I3772
sV\u8038
I3773
sV\u614e
I3774
sV\u8dd1
I3775
sV\u8bd5
I3776
sV\u76d7
I3777
sV\u9556
I3778
sV\u7adf
I3779
sV\u8d66
I3780
sV\u94eb
I3781
sV\u5df1
I3782
sV\u7a74
I3783
sV\u6078
I3784
sV\u5782
I3785
sV\u9888
I3786
sV\u670d
I3787
sV\u868c
I3788
sV\u7596
I3789
sV\u9119
I3790
sV\u5a1f
I3791
sV\u8521
I3792
sV\u67a2
I3793
sV\u4e27
I3794
sV\u6da6
I3795
sV\u83ba
I3796
sV\u5541
I3797
sV\u5345
I3798
sV\u72c4
I3799
sV\u5949
I3800
sV\u824f
I3801
sV\u55d6
I3802
sV\u9edc
I3803
sV\u88e8
I3804
sV\u526f
I3805
sV\u71ee
I3806
sV\u65f6
I3807
sV\u8179
I3808
sV\u8f7d
I3809
sV\u9602
I3810
sV\u658b
I3811
sV\u638f
I3812
sV\u7118
I3813
sV\u7f1c
I3814
sV\u6324
I3815
sV\u7cb1
I3816
sV\u8138
I3817
sV\u94c1
I3818
sV\u77d7
I3819
sV\u95eb
I3820
sV\u56ed
I3821
sV\u776c
I3822
sV\u8dfb
I3823
sV\u4efd
I3824
sV\u6f7c
I3825
sV\u8bff
I3826
sV\u9988
I3827
sV\u6c11
I3828
sV\u4e92
I3829
sV\u5d1b
I3830
sV\u6ca6
I3831
sV\u752b
I3832
sV\u90ae
I3833
sV\u5bb4
I3834
sV\u6d3b
I3835
sV\u834f
I3836
sV\u6bd4
I3837
sV\u6869
I3838
sV\u536f
I3839
sV\u5973
I3840
sV\u5600
I3841
sV\u9502
I3842
sV\u5a08
I3843
sV\u830e
I3844
sV\u4e10
I3845
sV\u9497
I3846
sV\u5d9d
I3847
sV\u6620
I3848
sV\u6a28
I3849
sV\u532e
I3850
sV\u8238
I3851
sV\u52c3
I3852
sV\u634e
I3853
sV\u8fd1
I3854
sV\u6d52
I3855
sV\u9756
I3856
sV\u7edb
I3857
sV\u915a
I3858
sV\u62e3
I3859
sV\u8f66
I3860
sV\u90ef
I3861
sV\u5ff1
I3862
sV\u7701
I3863
sV\u5582
I3864
sV\u9a88
I3865
sV\u598a
I3866
sV\u848c
I3867
sV\u5417
I3868
sV\u5e1b
I3869
sV\u8721
I3870
sV\u762b
I3871
sV\u54ac
I3872
sV\u7a33
I3873
sV\u81ba
I3874
sV\u8bbe
I3875
sV\u5145
I3876
sV\u4f51
I3877
sV\u5bde
I3878
sV\u6761
I3879
sV\u80e4
I3880
sV\u566b
I3881
sV\u956d
I3882
sV\u9975
I3883
sV\u4f10
I3884
sV\u6b93
I3885
sV\u8c12
I3886
sV\u9f9b
I3887
sV\u6124
I3888
sV\u522e
I3889
sV\u7eb1
I3890
sV\u62b9
I3891
sV\u8338
I3892
sV\u6cbd
I3893
sV\u8d3c
I3894
sV\u96c1
I3895
sV\u90c5
I3896
sV\u624e
I3897
sV\u88d5
I3898
sV\u79df
I3899
sV\u63e3
I3900
sV\u8e66
I3901
sV\u97eb
I3902
sV\u54ed
I3903
sV\u6d7c
I3904
sV\u7601
I3905
sV\u5482
I3906
sV\u5e86
I3907
sV\u8f90
I3908
sV\u7696
I3909
sV\u5f1b
I3910
sV\u591f
I3911
sV\u712f
I3912
sV\u92ae
I3913
sV\u7b33
I3914
sV\u9cb2
I3915
sV\u80ba
I3916
sV\u693f
I3917
sV\u5a49
I3918
sV\u65cc
I3919
sV\u7259
I3920
sV\u50da
I3921
sV\u87e0
I3922
sV\u8be8
I3923
sV\u72ee
I3924
sV\u9e71
I3925
sV\u5b73
I3926
sV\u9875
I3927
sV\u4f7b
I3928
sV\u60fa
I3929
sV\u5800
I3930
sV\u5408
I3931
sV\u6e8f
I3932
sV\u9a97
I3933
sV\u5d99
I3934
sV\u909b
I3935
sV\u539d
I3936
sV\u4fa5
I3937
sV\u6e24
I3938
sV\u7bad
I3939
sV\u9634
I3940
sV\u4f3a
I3941
sV\u52c7
I3942
sV\u8bcd
I3943
sV\u6d4e
I3944
sV\u70db
I3945
sV\u525c
I3946
sV\u76df
I3947
sV\u955e
I3948
sV\u6ce3
I3949
sV\u62e7
I3950
sV\u9eef
I3951
sV\u7070
I3952
sV\u94f3
I3953
sV\u627c
I3954
sV\u7901
I3955
sV\u9880
I3956
sV\u7f05
I3957
sV\u9488
I3958
sV\u6715
I3959
sV\u7f9a
I3960
sV\u561f
I3961
sV\u67aa
I3962
sV\u7433
I3963
sV\u603b
I3964
sV\u7ec4
I3965
sV\u5549
I3966
sV\u586b
I3967
sV\u9171
I3968
sV\u5473
I3969
sV\u73f2
I3970
sV\u837d
I3971
sV\u5f04
I3972
sV\u7387
I3973
sV\u9006
I3974
sV\u8c0e
I3975
sV\u6593
I3976
sV\u8212
I3977
sV\u919b
I3978
sV\u529d
I3979
sV\u731c
I3980
sV\u6920
I3981
sV\u8da3
I3982
sV\u4ea5
I3983
sV\u6cb9
I3984
sV\u8d38
I3985
sV\u4e3a
I3986
sV\u62bd
I3987
sV\u833c
I3988
sV\u94c9
I3989
sV\u4fcf
I3990
sV\u6252
I3991
sV\u5d58
I3992
sV\u9e5a
I3993
sV\u535c
I3994
sV\u4f64
I3995
sV\u95f3
I3996
sV\u56f5
I3997
sV\u8bf7
I3998
sV\u6d78
I3999
sV\u81fb
I4000
sV\u7801
I4001
sV\u9980
I4002
sV\u9f84
I4003
sV\u7409
I4004
sV\u6615
I4005
sV\u5b17
I4006
sV\u571f
I4007
sV\u749e
I4008
sV\u8821
I4009
sV\u60a6
I4010
sV\u51b0
I4011
sV\u7533
I4012
sV\u6b37
I4013
sV\u8eba
I4014
sV\u79c0
I4015
sV\u5e45
I4016
sV\u75c8
I4017
sV\u67d4
I4018
sV\u54de
I4019
sV\u6861
I4020
sV\u8fe4
I4021
sV\u6469
I4022
sV\u9a6d
I4023
sV\u72f2
I4024
sV\u9675
I4025
sV\u8c79
I4026
sV\u5c04
I4027
sV\u5608
I4028
sV\u6c8f
I4029
sV\u8112
I4030
sV\u9897
I4031
sV\u5f99
I4032
sV\u949f
I4033
sV\u6c24
I4034
sV\u6628
I4035
sV\u75b5
I4036
sV\u6fb9
I4037
sV\u85d5
I4038
sV\u505c
I4039
sV\u975e
I4040
sV\u60e7
I4041
sV\u8366
I4042
sV\u9aeb
I4043
sV\u786c
I4044
sV\u53f1
I4045
sV\u96f3
I4046
sV\u55f5
I4047
sV\u607c
I4048
sV\u84ff
I4049
sV\u5982
I4050
sV\u5386
I4051
sV\u7709
I4052
sV\u9688
I4053
sV\u558a
I4054
sV\u690d
I4055
sV\u6311
I4056
sV\u521b
I4057
sV\u541f
I4058
sV\u8d25
I4059
sV\u8729
I4060
sV\u6837
I4061
sV\u8bb6
I4062
sV\u9e43
I4063
sV\u9047
I4064
sV\u76c8
I4065
sV\u62d0
I4066
sV\u9ed8
I4067
sV\u90dc
I4068
sV\u6769
I4069
sV\u996d
I4070
sV\u5c6f
I4071
sV\u5708
I4072
sV\u6b8b
I4073
sV\u9997
I4074
sV\u5e99
I4075
sV\u7f18
I4076
sV\u6b20
I4077
sV\u8fa3
I4078
sV\u6728
I4079
sV\u5e2e
I4080
sV\u9534
I4081
sV\u9ac1
I4082
sV\u5fc3
I4083
sV\u9cc5
I4084
sV\u51c7
I4085
sV\u96c9
I4086
sV\u6e4e
I4087
sV\u82d1
I4088
sV\u6052
I4089
sV\u515c
I4090
sV\u8862
I4091
sV\u97f3
I4092
sV\u7574
I4093
sV\u6f78
I4094
sV\u85ff
I4095
sV\u4e8e
I4096
sV\u6211
I4097
sV\u7a96
I4098
sV\u901d
I4099
sV\u68a2
I4100
sV\u8c25
I4101
sV\u7b2b
I4102
sV\u7d2f
I4103
sV\u653f
I4104
sV\u5c45
I4105
sV\u69cc
I4106
sV\u8d4f
I4107
sV\u63d0
I4108
sV\u8753
I4109
sV\u5ad6
I4110
sV\u91dc
I4111
sV\u56de
I4112
sV\u6a61
I4113
sV\u8be0
I4114
sV\u8de4
I4115
sV\u5d6f
I4116
sV\u7eee
I4117
sV\u5773
I4118
sV\u6cfa
I4119
sV\u66fe
I4120
sV\u5a04
I4121
sV\u7687
I4122
sV\u9506
I4123
sV\u8712
I4124
sV\u5999
I4125
sV\u949b
I4126
sV\u6028
I4127
sV\u9e2c
I4128
sV\u592e
I4129
sV\u75b1
I4130
sV\u7f42
I4131
sV\u91c9
I4132
sV\u7ed7
I4133
sV\u5858
I4134
sV\u565c
I4135
sV\u915e
I4136
sV\u68e3
I4137
sV\u836a
I4138
sV\u5fed
I4139
sV\u9aef
I4140
sV\u7470
I4141
sV\u53f5
I4142
sV\u9a84
I4143
sV\u7109
I4144
sV\u541b
I4145
sV\u8d21
I4146
sV\u63aa
I4147
sV\u8bba
I4148
sV\u623f
I4149
sV\u9647
I4150
sV\u5149
I4151
sV\u70c8
I4152
sV\u4f4d
I4153
sV\u62d4
I4154
sV\u98d8
I4155
sV\u6b65
I4156
sV\u9571
I4157
sV\u877d
I4158
sV\u5899
I4159
sV\u7ead
I4160
sV\u9f2c
I4161
sV\u9530
I4162
sV\u5632
I4163
sV\u9ac5
I4164
sV\u684e
I4165
sV\u84d1
I4166
sV\u6652
I4167
sV\u5958
I4168
sV\u75db
I4169
sV\u575c
I4170
sV\u8ff7
I4171
sV\u6978
I4172
sV\u85fb
I4173
sV\u5486
I4174
sV\u6e0d
I4175
sV\u6215
I4176
sV\u5f17
I4177
sV\u551b
I4178
sV\u8c21
I4179
sV\u6ea2
I4180
sV\u7d2b
I4181
sV\u653b
I4182
sV\u80be
I4183
sV\u5c41
I4184
sV\u8d4b
I4185
sV\u4e4d
I4186
sV\u8153
I4187
sV\u6c61
I4188
sV\u8be4
I4189
sV\u6069
I4190
sV\u9e6d
I4191
sV\u5173
I4192
sV\u76f2
I4193
sV\u867d
I4194
sV\u7a83
I4195
sV\u7487
I4196
sV\u9706
I4197
sV\u5208
I4198
sV\u688f
I4199
sV\u6293
I4200
sV\u5b99
I4201
sV\u559d
I4202
sV\u6e20
I4203
sV\u71b5
I4204
sV\u4f36
I4205
sV\u65bd
I4206
sV\u843c
I4207
sV\u54c7
I4208
sV\u4ecb
I4209
sV\u714a
I4210
sV\u87d1
I4211
sV\u7cd7
I4212
sV\u76db
I4213
sV\u545c
I4214
sV\u70df
I4215
sV\u4e60
I4216
sV\u8d62
I4217
sV\u7f01
I4218
sV\u5d82
I4219
sV\u9884
I4220
sV\u8c8c
I4221
sV\u6115
I4222
sV\u561b
I4223
sV\u501f
I4224
sV\u8925
I4225
sV\u5cac
I4226
sV\u603f
I4227
sV\u7ec0
I4228
sV\u5349
I4229
sV\u72c8
I4230
sV\u8e4b
I4231
sV\u6ccc
I4232
sV\u5fd6
I4233
sV\u9ad8
I4234
sV\u59da
I4235
sV\u94dc
I4236
sV\u88e4
I4237
sV\u6369
I4238
sV\u7bee
I4239
sV\u9175
I4240
sV\u5f00
I4241
sV\u5904
I4242
sV\u9606
I4243
sV\u5308
I4244
sV\u900a
I4245
sV\u549d
I4246
sV\u751c
I4247
sV\u4ea1
I4248
sV\u6f20
I4249
sV\u8ba3
I4250
sV\u6924
I4251
sV\u6328
I4252
sV\u76b1
I4253
sV\u9730
I4254
sV\u4e36
I4255
sV\u853c
I4256
sV\u6452
I4257
sV\u5b58
I4258
sV\u77db
I4259
sV\u555c
I4260
sV\u4f60
I4261
sV\u8c62
I4262
sV\u65e7
I4263
sV\u806a
I4264
sV\u5ced
I4265
sV\u56f1
I4266
sV\u50f5
I4267
sV\u8df7
I4268
sV\u5c82
I4269
sV\u9984
I4270
sV\u6015
I4271
sV\u789a
I4272
sV\u7f2b
I4273
sV\u94b2
I4274
sV\u613f
I4275
sV\u9b43
I4276
sV\u9547
I4277
sV\u73c8
I4278
sV\u6dcc
I4279
sV\u67d0
I4280
sV\u5ed6
I4281
sV\u6865
I4282
sV\u6269
I4283
sV\u5373
I4284
sV\u9075
I4285
sV\u8a79
I4286
sV\u68fa
I4287
sV\u62fe
I4288
sV\u6000
I4289
sV\u8785
I4290
sV\u568f
I4291
sV\u9991
I4292
sV\u8116
I4293
sV\u6599
I4294
sV\u871a
I4295
sV\u8d1e
I4296
sV\u77a5
I4297
sV\u5624
I4298
sV\u86af
I4299
sV\u6b32
I4300
sV\u4fb5
I4301
sV\u7136
I4302
sV\u55b9
I4303
sV\u773a
I4304
sV\u5bbd
I4305
sV\u76cf
I4306
sV\u6458
I4307
sV\u8bdd
I4308
sV\u4edf
I4309
sV\u63ed
I4310
sV\u9176
I4311
sV\u75f9
I4312
sV\u5478
I4313
sV\u8403
I4314
sV\u6382
I4315
sV\u8a07
I4316
sV\u6986
I4317
sV\u900b
I4318
sV\u530d
I4319
sV\u5f15
I4320
sV\u6217
I4321
sV\u53a2
I4322
sV\u9ca8
I4323
sV\u5faa
I4324
sV\u62ac
I4325
sV\u68b0
I4326
sV\u6eb4
I4327
sV\u5237
I4328
sV\u9539
I4329
sV\u89c6
I4330
sV\u7f55
I4331
sV\u67da
I4332
sV\u6dde
I4333
sV\u79e6
I4334
sV\u5d69
I4335
sV\u606b
I4336
sV\u666f
I4337
sV\u51f6
I4338
sV\u94f8
I4339
sV\u57fa
I4340
sV\u5dfe
I4341
sV\u8c89
I4342
sV\u9891
I4343
sV\u7f14
I4344
sV\u6499
I4345
sV\u9e2a
I4346
sV\u87af
I4347
sV\u8db3
I4348
sV\u4eb5
I4349
sV\u65c3
I4350
sV\u8d48
I4351
sV\u4fdf
I4352
sV\u90e1
I4353
sV\u55e3
I4354
sV\u62ed
I4355
sV\u68f1
I4356
sV\u5578
I4357
sV\u7afd
I4358
sV\u6886
I4359
sV\u520d
I4360
sV\u970f
I4361
sV\u748e
I4362
sV\u5811
I4363
sV\u7a92
I4364
sV\u5e15
I4365
sV\u63ac
I4366
sV\u8e35
I4367
sV\u75b8
I4368
sV\u88c6
I4369
sV\u6c49
I4370
sV\u724d
I4371
sV\u53cc
I4372
sV\u94ce
I4373
sV\u59d0
I4374
sV\u6cde
I4375
sV\u9563
I4376
sV\u7eea
I4377
sV\u676f
I4378
sV\u95f8
I4379
sV\u56fa
I4380
sV\u8585
I4381
sV\u8f89
I4382
sV\u918d
I4383
sV\u548f
I4384
sV\u5e93
I4385
sV\u851a
I4386
sV\u5220
I4387
sV\u9122
I4388
sV\u75a5
I4389
sV\u82ab
I4390
sV\u753a
I4391
sV\u8e48
I4392
sV\u574e
I4393
sV\u7ed3
I4394
sV\u876e
I4395
sV\u79fd
I4396
sV\u6b86
I4397
sV\u4f09
I4398
sV\u778e
I4399
sV\u889c
I4400
sV\u6c1f
I4401
sV\u51a2
I4402
sV\u7827
I4403
sV\u5ba6
I4404
sV\u60ac
I4405
sV\u8d35
I4406
sV\u9739
I4407
sV\u5c3f
I4408
sV\u81c2
I4409
sV\u6545
I4410
sV\u8bc6
I4411
sV\u7b51
I4412
sV\u63d6
I4413
sV\u6fde
I4414
sV\u5361
I4415
sV\u5565
I4416
sV\u7be6
I4417
sV\u5f69
I4418
sV\u626b
I4419
sV\u53f6
I4420
sV\u5ffe
I4421
sV\u538b
I4422
sV\u558f
I4423
sV\u9a91
I4424
sV\u8e1e
I4425
sV\u5320
I4426
sV\u9022
I4427
sV\u5524
I4428
sV\u83ab
I4429
sV\u85af
I4430
sV\u7236
I4431
sV\u8340
I4432
sV\u914c
I4433
sV\u564e
I4434
sV\u86d9
I4435
sV\u7360
I4436
sV\u9ee9
I4437
sV\u60ed
I4438
sV\u8872
I4439
sV\u6cf5
I4440
sV\u76f9
I4441
sV\u8703
I4442
sV\u4e09
I4443
sV\u500d
I4444
sV\u950f
I4445
sV\u768e
I4446
sV\u5a11
I4447
sV\u9f13
I4448
sV\u5c15
I4449
sV\u61ac
I4450
sV\u8c35
I4451
sV\u6241
I4452
sV\u51cc
I4453
sV\u96ce
I4454
sV\u5bd0
I4455
sV\u98d2
I4456
sV\u62d6
I4457
sV\u6ede
I4458
sV\u5261
I4459
sV\u81ec
I4460
sV\u8bf0
I4461
sV\u54fa
I4462
sV\u6400
I4463
sV\u8385
I4464
sV\u6808
I4465
sV\u548b
I4466
sV\u978d
I4467
sV\u5893
I4468
sV\u7a14
I4469
sV\u831a
I4470
sV\u4e1c
I4471
sV\u75a1
I4472
sV\u5420
I4473
sV\u5224
I4474
sV\u82af
I4475
sV\u9cbb
I4476
sV\u5fbd
I4477
sV\u793e
I4478
sV\u8244
I4479
sV\u6ec7
I4480
sV\u964c
I4481
sV\u5f52
I4482
sV\u8fdd
I4483
sV\u816e
I4484
sV\u6df1
I4485
sV\u8f72
I4486
sV\u9576
I4487
sV\u71f9
I4488
sV\u5e7c
I4489
sV\u8003
I4490
sV\u6b8a
I4491
sV\u8098
I4492
sV\u6c1b
I4493
sV\u6a1f
I4494
sV\u94a0
I4495
sV\u7023
I4496
sV\u57a2
I4497
sV\u5baa
I4498
sV\u8d31
I4499
sV\u70b8
I4500
sV\u5c3b
I4501
sV\u6345
I4502
sV\u8dc6
I4503
sV\u8bca
I4504
sV\u91ce
I4505
sV\u5ad4
I4506
sV\u65d6
I4507
sV\u4f5d
I4508
sV\u5561
I4509
sV\u9063
I4510
sV\u77e2
I4511
sV\u9e67
I4512
sV\u7bea
I4513
sV\u626f
I4514
sV\u90f8
I4515
sV\u7c7b
I4516
sV\u7a7f
I4517
sV\u6500
I4518
sV\u558b
I4519
sV\u968d
I4520
sV\u9c91
I4521
sV\u5993
I4522
sV\u7b14
I4523
sV\u5520
I4524
sV\u6e32
I4525
sV\u7436
I4526
sV\u783e
I4527
sV\u73cf
I4528
sV\u504e
I4529
sV\u9b54
I4530
sV\u6f5c
I4531
sV\u94e1
I4532
sV\u5fe7
I4533
sV\u7968
I4534
sV\u6cf1
I4535
sV\u8e72
I4536
sV\u70f9
I4537
sV\u5178
I4538
sV\u7efd
I4539
sV\u5f7c
I4540
sV\u987e
I4541
sV\u6682
I4542
sV\u6c86
I4543
sV\u950b
I4544
sV\u708e
I4545
sV\u5c11
I4546
sV\u6717
I4547
sV\u8198
I4548
sV\u6d1b
I4549
sV\u8f9c
I4550
sV\u99a8
I4551
sV\u8c31
I4552
sV\u6bb4
I4553
sV\u9e3d
I4554
sV\u6441
I4555
sV\u6849
I4556
sV\u90ce
I4557
sV\u8757
I4558
sV\u8d5b
I4559
sV\u4e5d
I4560
sV\u9163
I4561
sV\u5265
I4562
sV\u4ef2
I4563
sV\u8bf4
I4564
sV\u52fa
I4565
sV\u6600
I4566
sV\u6004
I4567
sV\u9995
I4568
sV\u7814
I4569
sV\u811a
I4570
sV\u6d9d
I4571
sV\u9522
I4572
sV\u7ba9
I4573
sV\u80af
I4574
sV\u6d32
I4575
sV\u7736
I4576
sV\u9ebb
I4577
sV\u4f46
I4578
sV\u534e
I4579
sV\u6258
I4580
sV\u8ddd
I4581
sV\u6c5c
I4582
sV\u65ed
I4583
sV\u4e70
I4584
sV\u9776
I4585
sV\u960b
I4586
sV\u900f
I4587
sV\u738e
I4588
sV\u5f11
I4589
sV\u5915
I4590
sV\u8298
I4591
sV\u7c27
I4592
sV\u9aa8
I4593
sV\u59aa
I4594
sV\u64ac
I4595
sV\u72b8
I4596
sV\u7cbc
I4597
sV\u6b49
I4598
sV\u89ca
I4599
sV\u54cc
I4600
sV\u7f51
I4601
sV\u8457
I4602
sV\u5761
I4603
sV\u75e2
I4604
sV\u5165
I4605
sV\u7fe6
I4606
sV\u5b69
I4607
sV\u84ec
I4608
sV\u606f
I4609
sV\u88f4
I4610
sV\u7477
I4611
sV\u51fa
I4612
sV\u8681
I4613
sV\u6700
I4614
sV\u8a89
I4615
sV\u578b
I4616
sV\u948d
I4617
sV\u5b93
I4618
sV\u9e26
I4619
sV\u87ab
I4620
sV\u622e
I4621
sV\u8bb3
I4622
sV\u6c32
I4623
sV\u6dc7
I4624
sV\u954c
I4625
sV\u9f50
I4626
sV\u7bd3
I4627
sV\u6d5c
I4628
sV\u53e3
I4629
sV\u7164
I4630
sV\u5de7
I4631
sV\u826e
I4632
sV\u4f70
I4633
sV\u68f5
I4634
sV\u9676
I4635
sV\u5378
I4636
sV\u9a7e
I4637
sV\u8303
I4638
sV\u6482
I4639
sV\u540d
I4640
sV\u5e11
I4641
sV\u9b13
I4642
sV\u7c92
I4643
sV\u5815
I4644
sV\u8398
I4645
sV\u691f
I4646
sV\u97a0
I4647
sV\u7d27
I4648
sV\u5ea6
I4649
sV\u8e31
I4650
sV\u69b4
I4651
sV\u5537
I4652
sV\u6641
I4653
sV\u5fd0
I4654
sV\u7855
I4655
sV\u59d4
I4656
sV\u60da
I4657
sV\u895f
I4658
sV\u74e2
I4659
sV\u5065
I4660
sV\u7ee6
I4661
sV\u8ff0
I4662
sV\u8981
I4663
sV\u6800
I4664
sV\u8f85
I4665
sV\u5e8f
I4666
sV\u5820
I4667
sV\u5428
I4668
sV\u88ab
I4669
sV\u8eaf
I4670
sV\u6d2e
I4671
sV\u6332
I4672
sV\u9ab7
I4673
sV\u90bb
I4674
sV\u7f3a
I4675
sV\u753e
I4676
sV\u8840
I4677
sV\u8e44
I4678
sV\u62c7
I4679
sV\u78cb
I4680
sV\u7ecf
I4681
sV\u9050
I4682
sV\u5352
I4683
sV\u83dd
I4684
sV\u95e9
I4685
sV\u9976
I4686
sV\u8c03
I4687
sV\u8c98
I4688
sV\u829c
I4689
sV\u661f
I4690
sV\u98a0
I4691
sV\u5ba2
I4692
sV\u94a8
I4693
sV\u6aac
I4694
sV\u8131
I4695
sV\u66b4
I4696
sV\u563f
I4697
sV\u8bc2
I4698
sV\u4ec4
I4699
sV\u81c6
I4700
sV\u87ca
I4701
sV\u5acc
I4702
sV\u56d4
I4703
sV\u80f0
I4704
sV\u7a77
I4705
sV\u8881
I4706
sV\u8e85
I4707
sV\u9091
I4708
sV\u7110
I4709
sV\u8816
I4710
sV\u6c99
I4711
sV\u7ea5
I4712
sV\u9026
I4713
sV\u74a9
I4714
sV\u962a
I4715
sV\u6c2e
I4716
sV\u8548
I4717
sV\u79cb
I4718
sV\u5c4e
I4719
sV\u9150
I4720
sV\u7960
I4721
sV\u94e9
I4722
sV\u8272
I4723
sV\u9876
I4724
sV\u7292
I4725
sV\u4e9a
I4726
sV\u671f
I4727
sV\u4f2f
I4728
sV\u5b37
I4729
sV\u6841
I4730
sV\u4fc4
I4731
sV\u80c6
I4732
sV\u86ca
I4733
sV\u5bcc
I4734
sV\u57d4
I4735
sV\u6eda
I4736
sV\u64de
I4737
sV\u70e6
I4738
sV\u696b
I4739
sV\u8bec
I4740
sV\u7b77
I4741
sV\u58f6
I4742
sV\u5efa
I4743
sV\u777f
I4744
sV\u8d85
I4745
sV\u998d
I4746
sV\u780c
I4747
sV\u5693
I4748
sV\u4e18
I4749
sV\u7ba1
I4750
sV\u5a20
I4751
sV\u5c24
I4752
sV\u77a9
I4753
sV\u51bd
I4754
sV\u94bf
I4755
sV\u7acb
I4756
sV\u8fd9
I4757
sV\u6e58
I4758
sV\u50e7
I4759
sV\u97e9
I4760
sV\u8f6e
I4761
sV\u5e78
I4762
sV\u6982
I4763
sV\u590d
I4764
sV\u7f8e
I4765
sV\u6817
I4766
sV\u621b
I4767
sV\u9aa0
I4768
sV\u9ca4
I4769
sV\u53a6
I4770
sV\u8331
I4771
sV\u9f39
I4772
sV\u7eb8
I4773
sV\u523b
I4774
sV\u70bc
I4775
sV\u89c2
I4776
sV\u6d45
I4777
sV\u6749
I4778
sV\u52d0
I4779
sV\u54d4
I4780
sV\u8857
I4781
sV\u6bd6
I4782
sV\u4f59
I4783
sV\u9e63
I4784
sV\u5769
I4785
sV\u75ea
I4786
sV\u4fee
I4787
sV\u7877
I4788
sV\u4f83
I4789
sV\u8c85
I4790
sV\u6d04
I4791
sV\u6708
I4792
sV\u5b8b
I4793
sV\u988d
I4794
sV\u5793
I4795
sV\u9495
I4796
sV\u4f18
I4797
sV\u8c1a
I4798
sV\u7ca5
I4799
sV\u5728
I4800
sV\u8bab
I4801
sV\u87b3
I4802
sV\u5eb9
I4803
sV\u763e
I4804
sV\u8d44
I4805
sV\u8748
I4806
sV\u9554
I4807
sV\u6f58
I4808
sV\u80dd
I4809
sV\u7b60
I4810
sV\u7768
I4811
sV\u62f1
I4812
sV\u9a76
I4813
sV\u70fd
I4814
sV\u517c
I4815
sV\u5211
I4816
sV\u9713
I4817
sV\u7092
I4818
sV\u5415
I4819
sV\u8f98
I4820
sV\u631b
I4821
sV\u819c
I4822
sV\u54aa
I4823
sV\u8231
I4824
sV\u63b0
I4825
sV\u5937
I4826
sV\u9e39
I4827
sV\u7fb8
I4828
sV\u533b
I4829
sV\u553f
I4830
sV\u88c2
I4831
sV\u84ca
I4832
sV\u9ece
I4833
sV\u7455
I4834
sV\u55d4
I4835
sV\u4e59
I4836
sV\u5c65
I4837
sV\u5669
I4838
sV\u83f0
I4839
sV\u6773
I4840
sV\u7977
I4841
sV\u757f
I4842
sV\u56fe
I4843
sV\u8d81
I4844
sV\u7410
I4845
sV\u679d
I4846
sV\u9526
I4847
sV\u5028
I4848
sV\u59b9
I4849
sV\u94bb
I4850
sV\u7b3a
I4851
sV\u9e4c
I4852
sV\u594e
I4853
sV\u4ed7
I4854
sV\u65f1
I4855
sV\u77fd
I4856
sV\u567c
I4857
sV\u5511
I4858
sV\u7792
I4859
sV\u5315
I4860
sV\u6e17
I4861
sV\u869c
I4862
sV\u621f
I4863
sV\u9ca0
I4864
sV\u7823
I4865
sV\u9aa4
I4866
sV\u64b0
I4867
sV\u8335
I4868
sV\u5e37
I4869
sV\u543b
I4870
sV\u6d41
I4871
sV\u8fc2
I4872
sV\u83ca
I4873
sV\u54d0
I4874
sV\u6dd6
I4875
sV\u845b
I4876
sV\u75e6
I4877
sV\u6073
I4878
sV\u82f4
I4879
sV\u5bfa
I4880
sV\u8089
I4881
sV\u6108
I4882
sV\u5b8f
I4883
sV\u9e22
I4884
sV\u7aa5
I4885
sV\u4ead
I4886
sV\u8baf
I4887
sV\u81b3
I4888
sV\u8d40
I4889
sV\u8148
I4890
sV\u9550
I4891
sV\u4fd7
I4892
sV\u88d9
I4893
sV\u675c
I4894
sV\u59e3
I4895
sV\u7168
I4896
sV\u4f6c
I4897
sV\u886e
I4898
sV\u5978
I4899
sV\u577c
I4900
sV\u8707
I4901
sV\u628a
I4902
sV\u788e
I4903
sV\u5411
I4904
sV\u631f
I4905
sV\u54a6
I4906
sV\u52aa
I4907
sV\u8431
I4908
sV\u65b0
I4909
sV\u8235
I4910
sV\u63b4
I4911
sV\u533f
I4912
sV\u6c41
I4913
sV\u5fcc
I4914
sV\u98ce
I4915
sV\u96d2
I4916
sV\u53d4
I4917
sV\u835f
I4918
sV\u5c61
I4919
sV\u7ee2
I4920
sV\u74e6
I4921
sV\u8389
I4922
sV\u6208
I4923
sV\u5e8b
I4924
sV\u7c0c
I4925
sV\u9791
I4926
sV\u891a
I4927
sV\u7fa1
I4928
sV\u5824
I4929
sV\u73a9
I4930
sV\u5228
I4931
sV\u8eab
I4932
sV\u82b3
I4933
sV\u9cb7
I4934
sV\u5bb9
I4935
sV\u793a
I4936
sV\u55bd
I4937
sV\u733e
I4938
sV\u7ecb
I4939
sV\u9650
I4940
sV\u8bd9
I4941
sV\u6a58
I4942
sV\u5ae3
I4943
sV\u54e7
I4944
sV\u67f1
I4945
sV\u8572
I4946
sV\u61f5
I4947
sV\u997a
I4948
sV\u547c
I4949
sV\u4f01
I4950
sV\u6d82
I4951
sV\u849c
I4952
sV\u7a23
I4953
sV\u98a4
I4954
sV\u57a6
I4955
sV\u4e2b
I4956
sV\u8d2d
I4957
sV\u8731
I4958
sV\u60b4
I4959
sV\u563b
I4960
sV\u4ec0
I4961
sV\u87c6
I4962
sV\u6349
I4963
sV\u81ca
I4964
sV\u7751
I4965
sV\u5965
I4966
sV\u6e6b
I4967
sV\u86f0
I4968
sV\u6273
I4969
sV\u80f4
I4970
sV\u767b
I4971
sV\u94fc
I4972
sV\u707f
I4973
sV\u8e81
I4974
sV\u8885
I4975
sV\u6308
I4976
sV\u5f8b
I4977
sV\u9c8d
I4978
sV\u9095
I4979
sV\u821e
I4980
sV\u7ea1
I4981
sV\u5f20
I4982
sV\u8fab
I4983
sV\u83b3
I4984
sV\u783a
I4985
sV\u54bd
I4986
sV\u8944
I4987
sV\u84dd
I4988
sV\u7af9
I4989
sV\u987a
I4990
sV\u557c
I4991
sV\u4e01
I4992
sV\u6c82
I4993
sV\u9f0b
I4994
sV\u6d17
I4995
sV\u671b
I4996
sV\u859c
I4997
sV\u611f
I4998
sV\u4f2b
I4999
sV\u8c2d
I5000
sV\u67b0
I5001
sV\u7bb8
I5002
sV\u573b
I5003
sV\u75bc
I5004
sV\u513f
I5005
sV\u6845
I5006
sV\u86c6
I5007
sV\u6249
I5008
sV\u7c4d
I5009
sV\u68da
I5010
sV\u5e61
I5011
sV\u9567
I5012
sV\u5269
I5013
sV\u8dec
I5014
sV\u81f4
I5015
sV\u5ef6
I5016
sV\u52fe
I5017
sV\u9785
I5018
sV\u620c
I5019
sV\u8f95
I5020
sV\u6e14
I5021
sV\u7599
I5022
sV\u5a1c
I5023
sV\u67a5
I5024
sV\u6da9
I5025
sV\u9cb3
I5026
sV\u5fb5
I5027
sV\u82b7
I5028
sV\u673a
I5029
sV\u6d3e
I5030
sV\u9644
I5031
sV\u60cb
I5032
sV\u6cd3
I5033
sV\u87e5
I5034
sV\u6664
I5035
sV\u73ed
I5036
sV\u5e74
I5037
sV\u6bfd
I5038
sV\u800b
I5039
sV\u7f8a
I5040
sV\u8c13
I5041
sV\u6b92
I5042
sV\u9a9c
I5043
sV\u80a0
I5044
sV\u86a4
I5045
sV\u4faa
I5046
sV\u72ac
I5047
sV\u78b0
I5048
sV\u64b8
I5049
sV\u634d
I5050
sV\u8bd2
I5051
sV\u4ed4
I5052
sV\u5b5d
I5053
sV\u8463
I5054
sV\u706b
I5055
sV\u7c73
I5056
sV\u6e7f
I5057
sV\u5583
I5058
sV\u9685
I5059
sV\u5b87
I5060
sV\u828d
I5061
sV\u6f14
I5062
sV\u9016
I5063
sV\u961a
I5064
sV\u7a9d
I5065
sV\u8222
I5066
sV\u8e2a
I5067
sV\u52ad
I5068
sV\u742e
I5069
sV\u5eb5
I5070
sV\u83b7
I5071
sV\u5242
I5072
sV\u7bc7
I5073
sV\u61cb
I5074
sV\u67cf
I5075
sV\u53d7
I5076
sV\u80e1
I5077
sV\u72ed
I5078
sV\u7ef5
I5079
sV\u9503
I5080
sV\u5c09
I5081
sV\u4e15
I5082
sV\u7f1f
I5083
sV\u6b27
I5084
sV\u9e35
I5085
sV\u51c0
I5086
sV\u624d
I5087
sV\u6851
I5088
sV\u5459
I5089
sV\u62e2
I5090
sV\u54ee
I5091
sV\u6377
I5092
sV\u9f89
I5093
sV\u4e93
I5094
sV\u6c14
I5095
sV\u5618
I5096
sV\u951a
I5097
sV\u65a5
I5098
sV\u8b26
I5099
sV\u4e28
I5100
sV\u8d2a
I5101
sV\u94af
I5102
sV\u6f3e
I5103
sV\u9e48
I5104
sV\u804c
I5105
sV\u6ed3
I5106
sV\u83e1
I5107
sV\u8fe9
I5108
sV\u506c
I5109
sV\u7bf1
I5110
sV\u9972
I5111
sV\u69fd
I5112
sV\u8f7e
I5113
sV\u9698
I5114
sV\u989c
I5115
sV\u522b
I5116
sV\u70ac
I5117
sV\u542f
I5118
sV\u7545
I5119
sV\u54c4
I5120
sV\u89d2
I5121
sV\u9057
I5122
sV\u4f69
I5123
sV\u86f8
I5124
sV\u4ffe
I5125
sV\u5783
I5126
sV\u7504
I5127
sV\u5987
I5128
sV\u7f08
I5129
sV\u7699
I5130
sV\u591c
I5131
sV\u62a1
I5132
sV\u8c2a
I5133
sV\u643a
I5134
sV\u8dbf
I5135
sV\u5a46
I5136
sV\u5c4a
I5137
sV\u814c
I5138
sV\u65cf
I5139
sV\u8d54
I5140
sV\u82e1
I5141
sV\u84e5
I5142
sV\u70ed
I5143
sV\u516c
I5144
sV\u5b70
I5145
sV\u5d74
I5146
sV\u66f9
I5147
sV\u847a
I5148
sV\u5201
I5149
sV\u9798
I5150
sV\u7b1b
I5151
sV\u549a
I5152
sV\u5e9e
I5153
sV\u83a0
I5154
sV\u8fa8
I5155
sV\u71ac
I5156
sV\u552f
I5157
sV\u67b8
I5158
sV\u9cca
I5159
sV\u604d
I5160
sV\u86ce
I5161
sV\u6c55
I5162
sV\u9157
I5163
sV\u5659
I5164
sV\u7ede
I5165
sV\u8763
I5166
sV\u4e69
I5167
sV\u6cea
I5168
sV\u6177
I5169
sV\u6b7b
I5170
sV\u5e87
I5171
sV\u878d
I5172
sV\u660c
I5173
sV\u6c10
I5174
sV\u7199
I5175
sV\u5018
I5176
sV\u5e1c
I5177
sV\u65a1
I5178
sV\u8722
I5179
sV\u63a5
I5180
sV\u8d26
I5181
sV\u94ab
I5182
sV\u57ad
I5183
sV\u5bb5
I5184
sV\u6536
I5185
sV\u633a
I5186
sV\u70c3
I5187
sV\u5742
I5188
sV\u7ec7
I5189
sV\u56d7
I5190
sV\u6868
I5191
sV\u77ed
I5192
sV\u566c
I5193
sV\u916e
I5194
sV\u5a74
I5195
sV\u5501
I5196
sV\u9003
I5197
sV\u5305
I5198
sV\u618e
I5199
sV\u8813
I5200
sV\u539a
I5201
sV\u599e
I5202
sV\u542b
I5203
sV\u972d
I5204
sV\u60b8
I5205
sV\u54c0
I5206
sV\u7949
I5207
sV\u6d51
I5208
sV\u5f5d
I5209
sV\u67e2
I5210
sV\u6de6
I5211
sV\u726f
I5212
sV\u80f8
I5213
sV\u5f87
I5214
sV\u9889
I5215
sV\u868d
I5216
sV\u7099
I5217
sV\u62a5
I5218
sV\u8c26
I5219
sV\u5cb1
I5220
sV\u8bbf
I5221
sV\u683e
I5222
sV\u9540
I5223
sV\u71c3
I5224
sV\u65cb
I5225
sV\u5a4a
I5226
sV\u874c
I5227
sV\u63cf
I5228
sV\u8d50
I5229
sV\u4e52
I5230
sV\u9edd
I5231
sV\u5bdf
I5232
sV\u82e5
I5233
sV\u906e
I5234
sV\u60f9
I5235
sV\u827a
I5236
sV\u4f7c
I5237
sV\u887e
I5238
sV\u5401
I5239
sV\u7682
I5240
sV\u830f
I5241
sV\u8913
I5242
sV\u5496
I5243
sV\u589e
I5244
sV\u6123
I5245
sV\u77ac
I5246
sV\u7bb4
I5247
sV\u7441
I5248
sV\u80ce
I5249
sV\u8f67
I5250
sV\u97ec
I5251
sV\u50ee
I5252
sV\u6777
I5253
sV\u7600
I5254
sV\u9185
I5255
sV\u8f91
I5256
sV\u6e10
I5257
sV\u9716
I5258
sV\u5218
I5259
sV\u892a
I5260
sV\u90af
I5261
sV\u732e
I5262
sV\u6b3e
I5263
sV\u9640
I5264
sV\u9044
I5265
sV\u8854
I5266
sV\u54d7
I5267
sV\u6064
I5268
sV\u8be9
I5269
sV\u7ff1
I5270
sV\u8776
I5271
sV\u817a
I5272
sV\u5b09
I5273
sV\u798a
I5274
sV\u638e
I5275
sV\u4f11
I5276
sV\u9c9c
I5277
sV\u781f
I5278
sV\u5b9e
I5279
sV\u80a4
I5280
sV\u6c27
I5281
sV\u4fa6
I5282
sV\u952d
I5283
sV\u7eb0
I5284
sV\u78b4
I5285
sV\u8339
I5286
sV\u4e3b
I5287
sV\u8d3d
I5288
sV\u6cbc
I5289
sV\u7741
I5290
sV\u7145
I5291
sV\u7b49
I5292
sV\u65e2
I5293
sV\u766b
I5294
sV\u94ec
I5295
sV\u706f
I5296
sV\u53ee
I5297
sV\u5df2
I5298
sV\u7b08
I5299
sV\u9616
I5300
sV\u901a
I5301
sV\u7c9d
I5302
sV\u54ad
I5303
sV\u91af
I5304
sV\u85b7
I5305
sV\u6636
I5306
sV\u6a3e
I5307
sV\u6bd3
I5308
sV\u9cdd
I5309
sV\u6760
I5310
sV\u80e5
I5311
sV\u556c
I5312
sV\u5f70
I5313
sV\u5974
I5314
sV\u6cfd
I5315
sV\u5601
I5316
sV\u5a09
I5317
sV\u810f
I5318
sV\u4e11
I5319
sV\u7f1b
I5320
sV\u6323
I5321
sV\u6d27
I5322
sV\u4ea6
I5323
sV\u8ba8
I5324
sV\u8239
I5325
sV\u63b8
I5326
sV\u94c2
I5327
sV\u51c4
I5328
sV\u82ce
I5329
sV\u4fd0
I5330
sV\u76d6
I5331
sV\u7ade
I5332
sV\u8363
I5333
sV\u64e2
I5334
sV\u8d67
I5335
sV\u6ee6
I5336
sV\u776b
I5337
sV\u6577
I5338
sV\u9981
I5339
sV\u7800
I5340
sV\u9f85
I5341
sV\u4e8f
I5342
sV\u6614
I5343
sV\u5c18
I5344
sV\u4e24
I5345
sV\u65a9
I5346
sV\u94b3
I5347
sV\u653e
I5348
sV\u9e44
I5349
sV\u5146
I5350
sV\u68cb
I5351
sV\u574a
I5352
sV\u6ecf
I5353
sV\u8654
I5354
sV\u6860
I5355
sV\u8fe5
I5356
sV\u85e9
I5357
sV\u6df9
I5358
sV\u63fd
I5359
sV\u857e
I5360
sV\u5509
I5361
sV\u8e0f
I5362
sV\u6d8e
I5363
sV\u6392
I5364
sV\u5996
I5365
sV\u701b
I5366
sV\u761f
I5367
sV\u9131
I5368
sV\u76b4
I5369
sV\u8d39
I5370
sV\u6cb8
I5371
sV\u62bc
I5372
sV\u7941
I5373
sV\u7f45
I5374
sV\u54c8
I5375
sV\u8dce
I5376
sV\u6151
I5377
sV\u905b
I5378
sV\u965f
I5379
sV\u75de
I5380
sV\u61e6
I5381
sV\u786b
I5382
sV\u5dee
I5383
sV\u53f2
I5384
sV\u607b
I5385
sV\u4ffa
I5386
sV\u9881
I5387
sV\u7f04
I5388
sV\u9489
I5389
sV\u4f8f
I5390
sV\u8695
I5391
sV\u6714
I5392
sV\u6ea5
I5393
sV\u4f24
I5394
sV\u8026
I5395
sV\u64a9
I5396
sV\u8bb7
I5397
sV\u81bb
I5398
sV\u6e3a
I5399
sV\u8150
I5400
sV\u9cd9
I5401
sV\u51db
I5402
sV\u57df
I5403
sV\u6960
I5404
sV\u7aed
I5405
sV\u5b6c
I5406
sV\u5170
I5407
sV\u62fd
I5408
sV\u5e05
I5409
sV\u5409
I5410
sV\u8513
I5411
sV\u6292
I5412
sV\u5e9a
I5413
sV\u771f
I5414
sV\u592b
I5415
sV\u7bac
I5416
sV\u5f2f
I5417
sV\u5533
I5418
sV\u9635
I5419
sV\u6db8
I5420
sV\u63bc
I5421
sV\u82d2
I5422
sV\u6655
I5423
sV\u7eda
I5424
sV\u8d63
I5425
sV\u8367
I5426
sV\u60e6
I5427
sV\u677f
I5428
sV\u7a00
I5429
sV\u680c
I5430
sV\u6210
I5431
sV\u6414
I5432
sV\u5e18
I5433
sV\u501c
I5434
sV\u971e
I5435
sV\u6ba1
I5436
sV\u7f2e
I5437
sV\u55b5
I5438
sV\u84bf
I5439
sV\u7ec3
I5440
sV\u5942
I5441
sV\u9648
I5442
sV\u554a
I5443
sV\u884c
I5444
sV\u4f4e
I5445
sV\u54df
I5446
sV\u8be1
I5447
sV\u4ee3
I5448
sV\u6c64
I5449
sV\u6668
I5450
sV\u79ed
I5451
sV\u586c
I5452
sV\u877e
I5453
sV\u8c0f
I5454
sV\u6f8e
I5455
sV\u7817
I5456
sV\u6e23
I5457
sV\u6027
I5458
sV\u72b0
I5459
sV\u9535
I5460
sV\u60bc
I5461
sV\u5cc4
I5462
sV\u8fce
I5463
sV\u6555
I5464
sV\u6877
I5465
sV\u80fc
I5466
sV\u9a81
I5467
sV\u9c85
I5468
sV\u7708
I5469
sV\u888d
I5470
sV\u5f18
I5471
sV\u8822
I5472
sV\u6ca5
I5473
sV\u52b1
I5474
sV\u663e
I5475
sV\u6bcb
I5476
sV\u544a
I5477
sV\u4e4e
I5478
sV\u8350
I5479
sV\u67d3
I5480
sV\u59d7
I5481
sV\u7f58
I5482
sV\u53db
I5483
sV\u90dd
I5484
sV\u715c
I5485
sV\u55df
I5486
sV\u4fe3
I5487
sV\u6768
I5488
sV\u72f1
I5489
sV\u5370
I5490
sV\u8c7a
I5491
sV\u867e
I5492
sV\u5a01
I5493
sV\u5609
I5494
sV\u8713
I5495
sV\u731b
I5496
sV\u5c9a
I5497
sV\u751f
I5498
sV\u6127
I5499
sV\u87a8
I5500
sV\u73b0
I5501
sV\u5733
I5502
sV\u75b4
I5503
sV\u8e39
I5504
sV\u803d
I5505
sV\u94ca
I5506
sV\u6251
I5507
sV\u7ad6
I5508
sV\u955f
I5509
sV\u62e6
I5510
sV\u95f4
I5511
sV\u6977
I5512
sV\u8ff8
I5513
sV\u637b
I5514
sV\u81fc
I5515
sV\u5883
I5516
sV\u9189
I5517
sV\u8f8d
I5518
sV\u6410
I5519
sV\u911e
I5520
sV\u6da1
I5521
sV\u61a9
I5522
sV\u9cab
I5523
sV\u55b1
I5524
sV\u90b3
I5525
sV\u6b3a
I5526
sV\u5546
I5527
sV\u534a
I5528
sV\u765c
I5529
sV\u52df
I5530
sV\u6c60
I5531
sV\u8be5
I5532
sV\u6068
I5533
sV\u996e
I5534
sV\u75f1
I5535
sV\u8d76
I5536
sV\u817e
I5537
sV\u7586
I5538
sV\u8c0b
I5539
sV\u4f0d
I5540
sV\u9898
I5541
sV\u741b
I5542
sV\u5b9a
I5543
sV\u969c
I5544
sV\u6627
I5545
sV\u7eac
I5546
sV\u9531
I5547
sV\u6f4d
I5548
sV\u89ce
I5549
sV\u6551
I5550
sV\u87d2
I5551
sV\u6355
I5552
sV\u575d
I5553
sV\u8863
I5554
sV\u65e6
I5555
sV\u63ea
I5556
sV\u94f0
I5557
sV\u88f8
I5558
sV\u627f
I5559
sV\u9c81
I5560
sV\u5983
I5561
sV\u9a85
I5562
sV\u571c
I5563
sV\u901e
I5564
sV\u6ca1
I5565
sV\u8e22
I5566
sV\u8426
I5567
sV\u822a
I5568
sV\u5ead
I5569
sV\u54b1
I5570
sV\u79c3
I5571
sV\u5e42
I5572
sV\u9b44
I5573
sV\u5446
I5574
sV\u6dcb
I5575
sV\u524a
I5576
sV\u6bcf
I5577
sV\u8354
I5578
sV\u5fd7
I5579
sV\u98d9
I5580
sV\u53df
I5581
sV\u6d60
I5582
sV\u6b64
I5583
sV\u6168
I5584
sV\u7eed
I5585
sV\u5f6c
I5586
sV\u9672
I5587
sV\u5374
I5588
sV\u68f9
I5589
sV\u5c01
I5590
sV\u7e82
I5591
sV\u5a05
I5592
sV\u9707
I5593
sV\u728a
I5594
sV\u4e0d
I5595
sV\u8113
I5596
sV\u5c96
I5597
sV\u5a9a
I5598
sV\u4ea2
I5599
sV\u8ba4
I5600
sV\u81a8
I5601
sV\u9e2d
I5602
sV\u8839
I5603
sV\u7c41
I5604
sV\u5bc4
I5605
sV\u94c6
I5606
sV\u6e4d
I5607
sV\u88ce
I5608
sV\u7cd6
I5609
sV\u955b
I5610
sV\u6ee2
I5611
sV\u64e6
I5612
sV\u58ee
I5613
sV\u95f0
I5614
sV\u7173
I5615
sV\u9985
I5616
sV\u4e8b
I5617
sV\u6014
I5618
sV\u5a18
I5619
sV\u759d
I5620
sV\u6fa1
I5621
sV\u8d22
I5622
sV\u63a9
I5623
sV\u7532
I5624
sV\u51b5
I5625
sV\u80bf
I5626
sV\u6ecb
I5627
sV\u8c4c
I5628
sV\u8650
I5629
sV\u62d3
I5630
sV\u8054
I5631
sV\u56db
I5632
sV\u745c
I5633
sV\u89e5
I5634
sV\u83e9
I5635
sV\u8f76
I5636
sV\u5f01
I5637
sV\u718a
I5638
sV\u949c
I5639
sV\u88a4
I5640
sV\u82a8
I5641
sV\u853d
I5642
sV\u64bc
I5643
sV\u91ca
I5644
sV\u6751
I5645
sV\u6155
I5646
sV\u5b59
I5647
sV\u965b
I5648
sV\u73de
I5649
sV\u5bee
I5650
sV\u55f2
I5651
sV\u90f4
I5652
sV\u84fc
I5653
sV\u607f
I5654
sV\u7f00
I5655
sV\u5b83
I5656
sV\u9885
I5657
sV\u5587
I5658
sV\u4f8b
I5659
sV\u6d0c
I5660
sV\u4f20
I5661
sV\u8c22
I5662
sV\u802a
I5663
sV\u5cad
I5664
sV\u623e
I5665
sV\u5c42
I5666
sV\u75c7
I5667
sV\u8d4c
I5668
sV\u8154
I5669
sV\u94dd
I5670
sV\u755c
I5671
sV\u5d6c
I5672
sV\u9a6e
I5673
sV\u76f1
I5674
sV\u5174
I5675
sV\u8e76
I5676
sV\u827e
I5677
sV\u5e01
I5678
sV\u9b03
I5679
sV\u7686
I5680
sV\u708a
I5681
sV\u6a8e
I5682
sV\u6492
I5683
sV\u5e96
I5684
sV\u529e
I5685
sV\u6b23
I5686
sV\u83a8
I5687
sV\u592f
I5688
sV\u9631
I5689
sV\u77b0
I5690
sV\u9035
I5691
sV\u843d
I5692
sV\u65bc
I5693
sV\u7e41
I5694
sV\u7845
I5695
sV\u96c6
I5696
sV\u53c8
I5697
sV\u90ca
I5698
sV\u6055
I5699
sV\u975b
I5700
sV\u72de
I5701
sV\u4e61
I5702
sV\u6ce2
I5703
sV\u66e6
I5704
sV\u796f
I5705
sV\u54f2
I5706
sV\u6d77
I5707
sV\u4ef6
I5708
sV\u8bf8
I5709
s.